
kernel.elf:     file format elf64-littleaarch64


Disassembly of section .init:

0000000000080000 <_start>:
   80000:	1000000c 	adr	x12, 80000 <_start>
   80004:	58000fa1 	ldr	x1, 801f8 <secondary_spin+0x28>
   80008:	b900002c 	str	w12, [x1]
   8000c:	58000fa0 	ldr	x0, 80200 <secondary_spin+0x30>
   80010:	58000fc1 	ldr	x1, 80208 <secondary_spin+0x38>
   80014:	b9000020 	str	w0, [x1]
   80018:	58000fc0 	ldr	x0, 80210 <secondary_spin+0x40>
   8001c:	58000fe1 	ldr	x1, 80218 <secondary_spin+0x48>
   80020:	b9000020 	str	w0, [x1]
   80024:	d2800020 	mov	x0, #0x1                   	// #1
   80028:	58000fc1 	ldr	x1, 80220 <secondary_spin+0x50>
   8002c:	b9000020 	str	w0, [x1]
   80030:	d2801300 	mov	x0, #0x98                  	// #152
   80034:	58000fa1 	ldr	x1, 80228 <secondary_spin+0x58>
   80038:	b9000020 	str	w0, [x1]
   8003c:	d5380000 	mrs	x0, midr_el1
   80040:	58000f81 	ldr	x1, 80230 <secondary_spin+0x60>
   80044:	b9000020 	str	w0, [x1]
   80048:	d53ce100 	mrs	x0, cnthctl_el2
   8004c:	b2400400 	orr	x0, x0, #0x3
   80050:	d51ce100 	msr	cnthctl_el2, x0
   80054:	d51ce07f 	msr	cntvoff_el2, xzr
   80058:	d538e100 	mrs	x0, cntkctl_el1
   8005c:	b2400400 	orr	x0, x0, #0x3
   80060:	d518e100 	msr	cntkctl_el1, x0

0000000000080064 <multicore_start>:
   80064:	58000ea2 	ldr	x2, 80238 <secondary_spin+0x68>
   80068:	58000ec3 	ldr	x3, 80240 <secondary_spin+0x70>
   8006c:	58000ee4 	ldr	x4, 80248 <secondary_spin+0x78>
   80070:	d53800a6 	mrs	x6, mpidr_el1
   80074:	f24004c6 	ands	x6, x6, #0x3
   80078:	540001c0 	b.eq	800b0 <set_stacks>  // b.none
   8007c:	58000ea2 	ldr	x2, 80250 <secondary_spin+0x80>
   80080:	58000ec3 	ldr	x3, 80258 <secondary_spin+0x88>
   80084:	58000ee4 	ldr	x4, 80260 <secondary_spin+0x90>
   80088:	f10004df 	cmp	x6, #0x1
   8008c:	54000120 	b.eq	800b0 <set_stacks>  // b.none
   80090:	58000ec2 	ldr	x2, 80268 <secondary_spin+0x98>
   80094:	58000ee3 	ldr	x3, 80270 <secondary_spin+0xa0>
   80098:	58000f04 	ldr	x4, 80278 <secondary_spin+0xa8>
   8009c:	f10008df 	cmp	x6, #0x2
   800a0:	54000080 	b.eq	800b0 <set_stacks>  // b.none
   800a4:	58000ee2 	ldr	x2, 80280 <secondary_spin+0xb0>
   800a8:	58000f03 	ldr	x3, 80288 <secondary_spin+0xb8>
   800ac:	58000f24 	ldr	x4, 80290 <secondary_spin+0xc0>

00000000000800b0 <set_stacks>:
   800b0:	9100005f 	mov	sp, x2
   800b4:	d51c4103 	msr	sp_el1, x3
   800b8:	d5184104 	msr	sp_el0, x4
   800bc:	d5380000 	mrs	x0, midr_el1
   800c0:	d53800a1 	mrs	x1, mpidr_el1
   800c4:	d51c0000 	msr	vpidr_el2, x0
   800c8:	d51c00a1 	msr	vmpidr_el2, x1
   800cc:	d2867fe0 	mov	x0, #0x33ff                	// #13311
   800d0:	d51c1140 	msr	cptr_el2, x0
   800d4:	d51c117f 	msr	hstr_el2, xzr
   800d8:	d2a00600 	mov	x0, #0x300000              	// #3145728
   800dc:	d5181040 	msr	cpacr_el1, x0
   800e0:	d2b00000 	mov	x0, #0x80000000            	// #2147483648
   800e4:	d51c1100 	msr	hcr_el2, x0
   800e8:	d2810000 	mov	x0, #0x800                 	// #2048
   800ec:	f2a61a00 	movk	x0, #0x30d0, lsl #16
   800f0:	b27e0000 	orr	x0, x0, #0x4
   800f4:	b2740000 	orr	x0, x0, #0x1000
   800f8:	d5181000 	msr	sctlr_el1, x0
   800fc:	d28078a0 	mov	x0, #0x3c5                 	// #965
   80100:	d51c4000 	msr	spsr_el2, x0
   80104:	10000060 	adr	x0, 80110 <exit_el1>
   80108:	d51c4020 	msr	elr_el2, x0
   8010c:	d69f03e0 	eret

0000000000080110 <exit_el1>:
   80110:	d53800a6 	mrs	x6, mpidr_el1
   80114:	924004c6 	and	x6, x6, #0x3
   80118:	b40000c6 	cbz	x6, 80130 <cpu0_exit_multicore_park>
   8011c:	58000821 	ldr	x1, 80220 <secondary_spin+0x50>
   80120:	b9400020 	ldr	w0, [x1]
   80124:	11000400 	add	w0, w0, #0x1
   80128:	b9000020 	str	w0, [x1]
   8012c:	14000024 	b	801bc <StartSecondarySpin>

0000000000080130 <cpu0_exit_multicore_park>:
   80130:	58000b40 	ldr	x0, 80298 <secondary_spin+0xc8>
   80134:	d518c000 	msr	vbar_el1, x0
   80138:	58000b43 	ldr	x3, 802a0 <secondary_spin+0xd0>
   8013c:	58000b60 	ldr	x0, 802a8 <secondary_spin+0xd8>
   80140:	eb03001f 	cmp	x0, x3
   80144:	54000082 	b.cs	80154 <.bss_cleared>  // b.hs, b.nlast

0000000000080148 <.bss_zero_loop>:
   80148:	b800441f 	str	wzr, [x0], #4
   8014c:	eb00007f 	cmp	x3, x0
   80150:	54ffffc8 	b.hi	80148 <.bss_zero_loop>  // b.pmore

0000000000080154 <.bss_cleared>:
   80154:	d2801c01 	mov	x1, #0xe0                  	// #224
   80158:	58000ac2 	ldr	x2, 802b0 <secondary_spin+0xe0>
   8015c:	f9000022 	str	x2, [x1]
   80160:	d503209f 	sev
   80164:	580005e3 	ldr	x3, 80220 <secondary_spin+0x50>

0000000000080168 <.WaitCore1ACK>:
   80168:	b9400061 	ldr	w1, [x3]
   8016c:	7100083f 	cmp	w1, #0x2
   80170:	54ffffc1 	b.ne	80168 <.WaitCore1ACK>  // b.any
   80174:	d2801d01 	mov	x1, #0xe8                  	// #232
   80178:	580009c2 	ldr	x2, 802b0 <secondary_spin+0xe0>
   8017c:	f9000022 	str	x2, [x1]
   80180:	d503209f 	sev
   80184:	580004e3 	ldr	x3, 80220 <secondary_spin+0x50>

0000000000080188 <.WaitCore2ACK>:
   80188:	b9400061 	ldr	w1, [x3]
   8018c:	71000c3f 	cmp	w1, #0x3
   80190:	54ffffc1 	b.ne	80188 <.WaitCore2ACK>  // b.any
   80194:	d2801e01 	mov	x1, #0xf0                  	// #240
   80198:	580008c2 	ldr	x2, 802b0 <secondary_spin+0xe0>
   8019c:	f9000022 	str	x2, [x1]
   801a0:	d503209f 	sev
   801a4:	580003e3 	ldr	x3, 80220 <secondary_spin+0x50>

00000000000801a8 <.WaitCore3ACK>:
   801a8:	b9400061 	ldr	w1, [x3]
   801ac:	7100103f 	cmp	w1, #0x4
   801b0:	54ffffc1 	b.ne	801a8 <.WaitCore3ACK>  // b.any
   801b4:	140001bf 	b	808b0 <main>

00000000000801b8 <hang>:
   801b8:	14000000 	b	801b8 <hang>

00000000000801bc <StartSecondarySpin>:
   801bc:	d53800a6 	mrs	x6, mpidr_el1
   801c0:	924004c6 	and	x6, x6, #0x3
   801c4:	d2801b05 	mov	x5, #0xd8                  	// #216
   801c8:	d2800001 	mov	x1, #0x0                   	// #0
   801cc:	f82678a1 	str	x1, [x5, x6, lsl #3]

00000000000801d0 <secondary_spin>:
   801d0:	d503205f 	wfe
   801d4:	f86678a4 	ldr	x4, [x5, x6, lsl #3]
   801d8:	b4ffffc4 	cbz	x4, 801d0 <secondary_spin>
   801dc:	d2800000 	mov	x0, #0x0                   	// #0
   801e0:	f82678a0 	str	x0, [x5, x6, lsl #3]
   801e4:	d2800001 	mov	x1, #0x0                   	// #0
   801e8:	d2800002 	mov	x2, #0x0                   	// #0
   801ec:	d2800003 	mov	x3, #0x0                   	// #0
   801f0:	d63f0080 	blr	x4
   801f4:	17fffff2 	b	801bc <StartSecondarySpin>
   801f8:	00085920 	.word	0x00085920
   801fc:	00000000 	.word	0x00000000
   80200:	3f000000 	.word	0x3f000000
   80204:	00000000 	.word	0x00000000
   80208:	00085918 	.word	0x00085918
   8020c:	00000000 	.word	0x00000000
   80210:	c0000000 	.word	0xc0000000
   80214:	00000000 	.word	0x00000000
   80218:	0008591c 	.word	0x0008591c
   8021c:	00000000 	.word	0x00000000
   80220:	00085924 	.word	0x00085924
   80224:	00000000 	.word	0x00000000
   80228:	00085930 	.word	0x00085930
   8022c:	00000000 	.word	0x00000000
   80230:	0008592c 	.word	0x0008592c
   80234:	00000000 	.word	0x00000000
   80238:	0008b890 	.word	0x0008b890
   8023c:	00000000 	.word	0x00000000
   80240:	0008a890 	.word	0x0008a890
   80244:	00000000 	.word	0x00000000
   80248:	00086890 	.word	0x00086890
   8024c:	00000000 	.word	0x00000000
   80250:	0008cc90 	.word	0x0008cc90
   80254:	00000000 	.word	0x00000000
   80258:	0008bc90 	.word	0x0008bc90
   8025c:	00000000 	.word	0x00000000
   80260:	0008ba90 	.word	0x0008ba90
   80264:	00000000 	.word	0x00000000
   80268:	0008e090 	.word	0x0008e090
   8026c:	00000000 	.word	0x00000000
   80270:	0008d090 	.word	0x0008d090
   80274:	00000000 	.word	0x00000000
   80278:	0008ce90 	.word	0x0008ce90
   8027c:	00000000 	.word	0x00000000
   80280:	0008f490 	.word	0x0008f490
   80284:	00000000 	.word	0x00000000
   80288:	0008e490 	.word	0x0008e490
   8028c:	00000000 	.word	0x00000000
   80290:	0008e290 	.word	0x0008e290
   80294:	00000000 	.word	0x00000000
   80298:	00081800 	.word	0x00081800
   8029c:	00000000 	.word	0x00000000
   802a0:	00086018 	.word	0x00086018
   802a4:	00000000 	.word	0x00000000
   802a8:	00085e00 	.word	0x00085e00
   802ac:	00000000 	.word	0x00000000
   802b0:	00080064 	.word	0x00080064
   802b4:	00000000 	.word	0x00000000

Disassembly of section .text:

0000000000080800 <timer_getTickCount64>:
   80800:	b0000020 	adrp	x0, 85000 <CEcoIPCCMailbox1_QueryInterface+0x180>
   80804:	b9491801 	ldr	w1, [x0, #2328]
   80808:	11400c21 	add	w1, w1, #0x3, lsl #12
   8080c:	d503201f 	nop
   80810:	b9400822 	ldr	w2, [x1, #8]
   80814:	b9400420 	ldr	w0, [x1, #4]
   80818:	b9400823 	ldr	w3, [x1, #8]
   8081c:	6b03005f 	cmp	w2, w3
   80820:	54ffff81 	b.ne	80810 <timer_getTickCount64+0x10>  // b.any
   80824:	2a0003e0 	mov	w0, w0
   80828:	aa028000 	orr	x0, x0, x2, lsl #32
   8082c:	d65f03c0 	ret

0000000000080830 <WriteCharacterAtCursorPosition>:
   80830:	12001c63 	and	w3, w3, #0xff
   80834:	8b220000 	add	x0, x0, w2, uxtb
   80838:	d0000029 	adrp	x9, 86000 <g_xCEcoFactoryList1_42757331+0x100>
   8083c:	91006129 	add	x9, x9, #0x18
   80840:	d37f7c26 	ubfiz	x6, x1, #1, #32
   80844:	d2800008 	mov	x8, #0x0                   	// #0
   80848:	1b017c63 	mul	w3, w3, w1
   8084c:	52800004 	mov	w4, #0x0                   	// #0
   80850:	528bfd67 	mov	w7, #0x5feb                	// #24555
   80854:	8b000061 	add	x1, x3, x0
   80858:	52800000 	mov	w0, #0x0                   	// #0
   8085c:	d503201f 	nop
   80860:	12000802 	and	w2, w0, #0x7
   80864:	7100009f 	cmp	w4, #0x0
   80868:	1a9fb0e5 	csel	w5, w7, wzr, lt  // lt = tstop
   8086c:	11000400 	add	w0, w0, #0x1
   80870:	d37f0843 	ubfiz	x3, x2, #1, #3
   80874:	71001c5f 	cmp	w2, #0x7
   80878:	12003c00 	and	w0, w0, #0xffff
   8087c:	8b060022 	add	x2, x1, x6
   80880:	0b040084 	add	w4, w4, w4
   80884:	78236825 	strh	w5, [x1, x3]
   80888:	9a810041 	csel	x1, x2, x1, eq  // eq = none
   8088c:	7100801f 	cmp	w0, #0x20
   80890:	54fffe81 	b.ne	80860 <WriteCharacterAtCursorPosition+0x30>  // b.any
   80894:	91001108 	add	x8, x8, #0x4
   80898:	f100411f 	cmp	x8, #0x10
   8089c:	54000060 	b.eq	808a8 <WriteCharacterAtCursorPosition+0x78>  // b.none
   808a0:	b8696904 	ldr	w4, [x8, x9]
   808a4:	17ffffed 	b	80858 <WriteCharacterAtCursorPosition+0x28>
   808a8:	52800000 	mov	w0, #0x0                   	// #0
   808ac:	d65f03c0 	ret

00000000000808b0 <main>:
   808b0:	d10703ff 	sub	sp, sp, #0x1c0
   808b4:	b0000020 	adrp	x0, 85000 <CEcoIPCCMailbox1_QueryInterface+0x180>
   808b8:	b9491800 	ldr	w0, [x0, #2328]
   808bc:	11400c00 	add	w0, w0, #0x3, lsl #12
   808c0:	a90a53f3 	stp	x19, x20, [sp, #160]
   808c4:	f90067fe 	str	x30, [sp, #200]
   808c8:	39035fff 	strb	wzr, [sp, #215]
   808cc:	a90dffff 	stp	xzr, xzr, [sp, #216]
   808d0:	a90effff 	stp	xzr, xzr, [sp, #232]
   808d4:	a90fffff 	stp	xzr, xzr, [sp, #248]
   808d8:	a910ffff 	stp	xzr, xzr, [sp, #264]
   808dc:	a911ffff 	stp	xzr, xzr, [sp, #280]
   808e0:	a912ffff 	stp	xzr, xzr, [sp, #296]
   808e4:	a913ffff 	stp	xzr, xzr, [sp, #312]
   808e8:	a914ffff 	stp	xzr, xzr, [sp, #328]
   808ec:	f900afff 	str	xzr, [sp, #344]
   808f0:	a9167fff 	stp	xzr, xzr, [sp, #352]
   808f4:	a9177fff 	stp	xzr, xzr, [sp, #368]
   808f8:	a9187fff 	stp	xzr, xzr, [sp, #384]
   808fc:	a9197fff 	stp	xzr, xzr, [sp, #400]
   80900:	a91a7fff 	stp	xzr, xzr, [sp, #416]
   80904:	f900dbff 	str	xzr, [sp, #432]
   80908:	b901bbff 	str	wzr, [sp, #440]
   8090c:	b9400802 	ldr	w2, [x0, #8]
   80910:	b9400401 	ldr	w1, [x0, #4]
   80914:	b9400801 	ldr	w1, [x0, #8]
   80918:	6b01005f 	cmp	w2, w1
   8091c:	54ffff81 	b.ne	8090c <main+0x5c>  // b.any
   80920:	b0000020 	adrp	x0, 85000 <CEcoIPCCMailbox1_QueryInterface+0x180>
   80924:	f946c800 	ldr	x0, [x0, #3472]
   80928:	d0000033 	adrp	x19, 86000 <g_xCEcoFactoryList1_42757331+0x100>
   8092c:	91006263 	add	x3, x19, #0x18
   80930:	910403e4 	add	x4, sp, #0x100
   80934:	91004063 	add	x3, x3, #0x10
   80938:	f9400005 	ldr	x5, [x0]
   8093c:	d2800002 	mov	x2, #0x0                   	// #0
   80940:	d2800001 	mov	x1, #0x0                   	// #0
   80944:	f9400ca5 	ldr	x5, [x5, #24]
   80948:	d63f00a0 	blr	x5
   8094c:	72003c1f 	tst	w0, #0xffff
   80950:	f94083e8 	ldr	x8, [sp, #256]
   80954:	54001b61 	b.ne	80cc0 <main+0x410>  // b.any
   80958:	f9400100 	ldr	x0, [x8]
   8095c:	52800105 	mov	w5, #0x8                   	// #8
   80960:	b90003ff 	str	wzr, [sp]
   80964:	52800007 	mov	w7, #0x0                   	// #0
   80968:	f9005bf5 	str	x21, [sp, #176]
   8096c:	52800006 	mov	w6, #0x0                   	// #0
   80970:	f9401c09 	ldr	x9, [x0, #56]
   80974:	52800064 	mov	w4, #0x3                   	// #3
   80978:	72a00084 	movk	w4, #0x4, lsl #16
   8097c:	528000a3 	mov	w3, #0x5                   	// #5
   80980:	910583e2 	add	x2, sp, #0x160
   80984:	2a0503e1 	mov	w1, w5
   80988:	aa0803e0 	mov	x0, x8
   8098c:	d63f0120 	blr	x9
   80990:	13003c00 	sxth	w0, w0
   80994:	3100041f 	cmn	w0, #0x1
   80998:	54000060 	b.eq	809a4 <main+0xf4>  // b.none
   8099c:	b9416ff5 	ldr	w21, [sp, #364]
   809a0:	b94173f4 	ldr	w20, [sp, #368]
   809a4:	f94083e0 	ldr	x0, [sp, #256]
   809a8:	52800086 	mov	w6, #0x4                   	// #4
   809ac:	52800007 	mov	w7, #0x0                   	// #0
   809b0:	2a0603e5 	mov	w5, w6
   809b4:	2a0603e3 	mov	w3, w6
   809b8:	910583e2 	add	x2, sp, #0x160
   809bc:	f9400008 	ldr	x8, [x0]
   809c0:	52800101 	mov	w1, #0x8                   	// #8
   809c4:	528000a4 	mov	w4, #0x5                   	// #5
   809c8:	72a00084 	movk	w4, #0x4, lsl #16
   809cc:	f9401d08 	ldr	x8, [x8, #56]
   809d0:	d63f0100 	blr	x8
   809d4:	13003c01 	sxth	w1, w0
   809d8:	f94083e8 	ldr	x8, [sp, #256]
   809dc:	3100043f 	cmn	w1, #0x1
   809e0:	b9416fe0 	ldr	w0, [sp, #364]
   809e4:	52800105 	mov	w5, #0x8                   	// #8
   809e8:	52800086 	mov	w6, #0x4                   	// #4
   809ec:	529000a2 	mov	w2, #0x8005                	// #32773
   809f0:	72a00082 	movk	w2, #0x4, lsl #16
   809f4:	f9400101 	ldr	x1, [x8]
   809f8:	1a9f1000 	csel	w0, w0, wzr, ne  // ne = any
   809fc:	b90003ff 	str	wzr, [sp]
   80a00:	52900083 	mov	w3, #0x8004                	// #32772
   80a04:	72a00083 	movk	w3, #0x4, lsl #16
   80a08:	b90033e3 	str	w3, [sp, #48]
   80a0c:	b90013e5 	str	w5, [sp, #16]
   80a10:	52900064 	mov	w4, #0x8003                	// #32771
   80a14:	72a00084 	movk	w4, #0x4, lsl #16
   80a18:	b9000be4 	str	w4, [sp, #8]
   80a1c:	b9001be5 	str	w5, [sp, #24]
   80a20:	52800207 	mov	w7, #0x10                  	// #16
   80a24:	b90023f5 	str	w21, [sp, #32]
   80a28:	528002e3 	mov	w3, #0x17                  	// #23
   80a2c:	b9002bf4 	str	w20, [sp, #40]
   80a30:	52800024 	mov	w4, #0x1                   	// #1
   80a34:	72a00084 	movk	w4, #0x4, lsl #16
   80a38:	b9003be5 	str	w5, [sp, #56]
   80a3c:	b90043e5 	str	w5, [sp, #64]
   80a40:	b9004bf5 	str	w21, [sp, #72]
   80a44:	b90053f4 	str	w20, [sp, #80]
   80a48:	b9005be2 	str	w2, [sp, #88]
   80a4c:	910583e2 	add	x2, sp, #0x160
   80a50:	b90063e6 	str	w6, [sp, #96]
   80a54:	b9006be6 	str	w6, [sp, #104]
   80a58:	b90073e0 	str	w0, [sp, #112]
   80a5c:	52800100 	mov	w0, #0x8                   	// #8
   80a60:	72a00080 	movk	w0, #0x4, lsl #16
   80a64:	b9007be0 	str	w0, [sp, #120]
   80a68:	b90083e6 	str	w6, [sp, #128]
   80a6c:	aa0803e0 	mov	x0, x8
   80a70:	b9008bff 	str	wzr, [sp, #136]
   80a74:	b90093ff 	str	wzr, [sp, #144]
   80a78:	f9401c29 	ldr	x9, [x1, #56]
   80a7c:	2a0503e1 	mov	w1, w5
   80a80:	d63f0120 	blr	x9
   80a84:	b9416fe0 	ldr	w0, [sp, #364]
   80a88:	940000a9 	bl	80d2c <GPUaddrToARMaddr>
   80a8c:	2a0003f5 	mov	w21, w0
   80a90:	b0000021 	adrp	x1, 85000 <CEcoIPCCMailbox1_QueryInterface+0x180>
   80a94:	f9460025 	ldr	x5, [x1, #3072]
   80a98:	b941bbf4 	ldr	w20, [sp, #440]
   80a9c:	91006261 	add	x1, x19, #0x18
   80aa0:	aa0503e0 	mov	x0, x5
   80aa4:	9100a023 	add	x3, x1, #0x28
   80aa8:	f94000a6 	ldr	x6, [x5]
   80aac:	910363e4 	add	x4, sp, #0xd8
   80ab0:	d2800002 	mov	x2, #0x0                   	// #0
   80ab4:	d2800001 	mov	x1, #0x0                   	// #0
   80ab8:	53017e94 	lsr	w20, w20, #1
   80abc:	f9400cc5 	ldr	x5, [x6, #24]
   80ac0:	d63f00a0 	blr	x5
   80ac4:	72003c1f 	tst	w0, #0xffff
   80ac8:	54000060 	b.eq	80ad4 <main+0x224>  // b.none
   80acc:	f9406fe0 	ldr	x0, [sp, #216]
   80ad0:	b4000fc0 	cbz	x0, 80cc8 <main+0x418>
   80ad4:	a90bdff6 	stp	x22, x23, [sp, #184]
   80ad8:	52800203 	mov	w3, #0x10                  	// #16
   80adc:	52800002 	mov	w2, #0x0                   	// #0
   80ae0:	2a1403e1 	mov	w1, w20
   80ae4:	aa1503e0 	mov	x0, x21
   80ae8:	97ffff52 	bl	80830 <WriteCharacterAtCursorPosition>
   80aec:	f9406fe1 	ldr	x1, [sp, #216]
   80af0:	b0000022 	adrp	x2, 85000 <CEcoIPCCMailbox1_QueryInterface+0x180>
   80af4:	91006276 	add	x22, x19, #0x18
   80af8:	f9451842 	ldr	x2, [x2, #2608]
   80afc:	910102d7 	add	x23, x22, #0x40
   80b00:	f9400023 	ldr	x3, [x1]
   80b04:	aa0103e0 	mov	x0, x1
   80b08:	aa1703e1 	mov	x1, x23
   80b0c:	f9401463 	ldr	x3, [x3, #40]
   80b10:	d63f0060 	blr	x3
   80b14:	72003c1f 	tst	w0, #0xffff
   80b18:	54000cc1 	b.ne	80cb0 <main+0x400>  // b.any
   80b1c:	f9406fe5 	ldr	x5, [sp, #216]
   80b20:	910383e4 	add	x4, sp, #0xe0
   80b24:	910162c3 	add	x3, x22, #0x58
   80b28:	d2800002 	mov	x2, #0x0                   	// #0
   80b2c:	aa0503e0 	mov	x0, x5
   80b30:	aa1703e1 	mov	x1, x23
   80b34:	f94000a5 	ldr	x5, [x5]
   80b38:	f9401ca5 	ldr	x5, [x5, #56]
   80b3c:	d63f00a0 	blr	x5
   80b40:	72003c1f 	tst	w0, #0xffff
   80b44:	54000b61 	b.ne	80cb0 <main+0x400>  // b.any
   80b48:	f94073e0 	ldr	x0, [sp, #224]
   80b4c:	b4000b20 	cbz	x0, 80cb0 <main+0x400>
   80b50:	f9400002 	ldr	x2, [x0]
   80b54:	9103a3e1 	add	x1, sp, #0xe8
   80b58:	f9400c42 	ldr	x2, [x2, #24]
   80b5c:	d63f0040 	blr	x2
   80b60:	f94077e3 	ldr	x3, [sp, #232]
   80b64:	9103c3e2 	add	x2, sp, #0xf0
   80b68:	9101c2c1 	add	x1, x22, #0x70
   80b6c:	aa0303e0 	mov	x0, x3
   80b70:	f9400063 	ldr	x3, [x3]
   80b74:	f9400063 	ldr	x3, [x3]
   80b78:	d63f0060 	blr	x3
   80b7c:	72003c1f 	tst	w0, #0xffff
   80b80:	f9407be0 	ldr	x0, [sp, #240]
   80b84:	54000a61 	b.ne	80cd0 <main+0x420>  // b.any
   80b88:	f9400002 	ldr	x2, [x0]
   80b8c:	52820003 	mov	w3, #0x1000                	// #4096
   80b90:	72a7e403 	movk	w3, #0x3f20, lsl #16
   80b94:	b9010be3 	str	w3, [sp, #264]
   80b98:	5298d801 	mov	w1, #0xc6c0                	// #50880
   80b9c:	72a005a1 	movk	w1, #0x2d, lsl #16
   80ba0:	f9400c42 	ldr	x2, [x2, #24]
   80ba4:	b90113e1 	str	w1, [sp, #272]
   80ba8:	910423e1 	add	x1, sp, #0x108
   80bac:	d63f0040 	blr	x2
   80bb0:	f94077e3 	ldr	x3, [sp, #232]
   80bb4:	91006261 	add	x1, x19, #0x18
   80bb8:	13003c13 	sxth	w19, w0
   80bbc:	9103e3e2 	add	x2, sp, #0xf8
   80bc0:	aa0303e0 	mov	x0, x3
   80bc4:	91022021 	add	x1, x1, #0x88
   80bc8:	f9400064 	ldr	x4, [x3]
   80bcc:	f9400083 	ldr	x3, [x4]
   80bd0:	d63f0060 	blr	x3
   80bd4:	f9407fe0 	ldr	x0, [sp, #248]
   80bd8:	350006b3 	cbnz	w19, 80cac <main+0x3fc>
   80bdc:	f9400002 	ldr	x2, [x0]
   80be0:	910703e1 	add	x1, sp, #0x1c0
   80be4:	52a7e403 	mov	w3, #0x3f200000            	// #1059061760
   80be8:	f9400c42 	ldr	x2, [x2, #24]
   80bec:	b8158c23 	str	w3, [x1, #-168]!
   80bf0:	d63f0040 	blr	x2
   80bf4:	f9407fe1 	ldr	x1, [sp, #248]
   80bf8:	aa0103e0 	mov	x0, x1
   80bfc:	f9400021 	ldr	x1, [x1]
   80c00:	f9400821 	ldr	x1, [x1, #16]
   80c04:	d63f0020 	blr	x1
   80c08:	f9407be1 	ldr	x1, [sp, #240]
   80c0c:	aa0103e0 	mov	x0, x1
   80c10:	f9400021 	ldr	x1, [x1]
   80c14:	f9400821 	ldr	x1, [x1, #16]
   80c18:	d63f0020 	blr	x1
   80c1c:	f94077e2 	ldr	x2, [sp, #232]
   80c20:	d2800001 	mov	x1, #0x0                   	// #0
   80c24:	aa0203e0 	mov	x0, x2
   80c28:	f9400042 	ldr	x2, [x2]
   80c2c:	f9400c42 	ldr	x2, [x2, #24]
   80c30:	d63f0040 	blr	x2
   80c34:	52800003 	mov	w3, #0x0                   	// #0
   80c38:	52800002 	mov	w2, #0x0                   	// #0
   80c3c:	2a1403e1 	mov	w1, w20
   80c40:	aa1503e0 	mov	x0, x21
   80c44:	97fffefb 	bl	80830 <WriteCharacterAtCursorPosition>
   80c48:	f94077e2 	ldr	x2, [sp, #232]
   80c4c:	52800901 	mov	w1, #0x48                  	// #72
   80c50:	aa0203e0 	mov	x0, x2
   80c54:	f9400042 	ldr	x2, [x2]
   80c58:	f9401442 	ldr	x2, [x2, #40]
   80c5c:	d63f0040 	blr	x2
   80c60:	52800603 	mov	w3, #0x30                  	// #48
   80c64:	52800802 	mov	w2, #0x40                  	// #64
   80c68:	2a1403e1 	mov	w1, w20
   80c6c:	aa1503e0 	mov	x0, x21
   80c70:	97fffef0 	bl	80830 <WriteCharacterAtCursorPosition>
   80c74:	d503201f 	nop
   80c78:	f94077e2 	ldr	x2, [sp, #232]
   80c7c:	91035fe1 	add	x1, sp, #0xd7
   80c80:	aa0203e0 	mov	x0, x2
   80c84:	f9400042 	ldr	x2, [x2]
   80c88:	f9401842 	ldr	x2, [x2, #48]
   80c8c:	d63f0040 	blr	x2
   80c90:	f94077e2 	ldr	x2, [sp, #232]
   80c94:	39435fe1 	ldrb	w1, [sp, #215]
   80c98:	aa0203e0 	mov	x0, x2
   80c9c:	f9400042 	ldr	x2, [x2]
   80ca0:	f9401442 	ldr	x2, [x2, #40]
   80ca4:	d63f0040 	blr	x2
   80ca8:	17fffff4 	b	80c78 <main+0x3c8>
   80cac:	b5fff980 	cbnz	x0, 80bdc <main+0x32c>
   80cb0:	a94b5bf5 	ldp	x21, x22, [sp, #176]
   80cb4:	f94063f7 	ldr	x23, [sp, #192]
   80cb8:	d503201f 	nop
   80cbc:	17ffffff 	b	80cb8 <main+0x408>
   80cc0:	b5ffe4c8 	cbnz	x8, 80958 <main+0xa8>
   80cc4:	17fffffd 	b	80cb8 <main+0x408>
   80cc8:	f9405bf5 	ldr	x21, [sp, #176]
   80ccc:	17fffffb 	b	80cb8 <main+0x408>
   80cd0:	b5fff5c0 	cbnz	x0, 80b88 <main+0x2d8>
   80cd4:	17fffff7 	b	80cb0 <main+0x400>

0000000000080cd8 <CoreExecute>:
   80cd8:	f2401c00 	ands	x0, x0, #0xff
   80cdc:	540001a0 	b.eq	80d10 <CoreExecuteFail>  // b.none
   80ce0:	580001c3 	ldr	x3, 80d18 <CoreExecuteFail+0x8>
   80ce4:	b9400062 	ldr	w2, [x3]
   80ce8:	6b02001f 	cmp	w0, w2
   80cec:	54000122 	b.cs	80d10 <CoreExecuteFail>  // b.hs, b.nlast
   80cf0:	d2800006 	mov	x6, #0x0                   	// #0
   80cf4:	2a0003e6 	mov	w6, w0
   80cf8:	d2801b05 	mov	x5, #0xd8                  	// #216
   80cfc:	f82678a1 	str	x1, [x5, x6, lsl #3]
   80d00:	d5033f9f 	dsb	sy
   80d04:	d503209f 	sev
   80d08:	d2800020 	mov	x0, #0x1                   	// #1
   80d0c:	d65f03c0 	ret

0000000000080d10 <CoreExecuteFail>:
   80d10:	d2800000 	mov	x0, #0x0                   	// #0
   80d14:	d65f03c0 	ret
   80d18:	00085924 	.word	0x00085924
   80d1c:	00000000 	.word	0x00000000

0000000000080d20 <ARMaddrToGPUaddr>:
   80d20:	d2b80001 	mov	x1, #0xc0000000            	// #3221225472
   80d24:	aa010000 	orr	x0, x0, x1
   80d28:	d65f03c0 	ret

0000000000080d2c <GPUaddrToARMaddr>:
   80d2c:	d2b80001 	mov	x1, #0xc0000000            	// #3221225472
   80d30:	8a210000 	bic	x0, x0, x1
   80d34:	d65f03c0 	ret
	...

0000000000081000 <setTimerIrqAddress>:
   81000:	d50342df 	msr	daifset, #0x2
   81004:	580000a1 	ldr	x1, 81018 <setTimerIrqAddress+0x18>
   81008:	f9400022 	ldr	x2, [x1]
   8100c:	f9000020 	str	x0, [x1]
   81010:	aa0203e0 	mov	x0, x2
   81014:	d65f03c0 	ret
   81018:	00085938 	.word	0x00085938
   8101c:	00000000 	.word	0x00000000

0000000000081020 <irq_handler_stub>:
   81020:	a9bf7bfd 	stp	x29, x30, [sp, #-16]!
   81024:	a9bf73fb 	stp	x27, x28, [sp, #-16]!
   81028:	a9bf6bf9 	stp	x25, x26, [sp, #-16]!
   8102c:	a9bf63f7 	stp	x23, x24, [sp, #-16]!
   81030:	a9bf5bf5 	stp	x21, x22, [sp, #-16]!
   81034:	a9bf53f3 	stp	x19, x20, [sp, #-16]!
   81038:	a9bf4bf1 	stp	x17, x18, [sp, #-16]!
   8103c:	a9bf43ef 	stp	x15, x16, [sp, #-16]!
   81040:	a9bf3bed 	stp	x13, x14, [sp, #-16]!
   81044:	a9bf33eb 	stp	x11, x12, [sp, #-16]!
   81048:	a9bf2be9 	stp	x9, x10, [sp, #-16]!
   8104c:	a9bf23e7 	stp	x7, x8, [sp, #-16]!
   81050:	a9bf1be5 	stp	x5, x6, [sp, #-16]!
   81054:	a9bf13e3 	stp	x3, x4, [sp, #-16]!
   81058:	a9bf0be1 	stp	x1, x2, [sp, #-16]!
   8105c:	f81f0fe0 	str	x0, [sp, #-16]!
   81060:	58007940 	ldr	x0, 81f88 <VectorTable+0x788>
   81064:	f9400000 	ldr	x0, [x0]
   81068:	b4000040 	cbz	x0, 81070 <no_irqset>
   8106c:	d63f0000 	blr	x0

0000000000081070 <no_irqset>:
   81070:	f84107e0 	ldr	x0, [sp], #16
   81074:	a8c10be1 	ldp	x1, x2, [sp], #16
   81078:	a8c113e3 	ldp	x3, x4, [sp], #16
   8107c:	a8c11be5 	ldp	x5, x6, [sp], #16
   81080:	a8c123e7 	ldp	x7, x8, [sp], #16
   81084:	a8c12be9 	ldp	x9, x10, [sp], #16
   81088:	a8c133eb 	ldp	x11, x12, [sp], #16
   8108c:	a8c13bed 	ldp	x13, x14, [sp], #16
   81090:	a8c143ef 	ldp	x15, x16, [sp], #16
   81094:	a8c14bf1 	ldp	x17, x18, [sp], #16
   81098:	a8c153f3 	ldp	x19, x20, [sp], #16
   8109c:	a8c15bf5 	ldp	x21, x22, [sp], #16
   810a0:	a8c163f7 	ldp	x23, x24, [sp], #16
   810a4:	a8c16bf9 	ldp	x25, x26, [sp], #16
   810a8:	a8c173fb 	ldp	x27, x28, [sp], #16
   810ac:	a8c17bfd 	ldp	x29, x30, [sp], #16
   810b0:	d69f03e0 	eret
   810b4:	d503201f 	nop
   810b8:	d503201f 	nop
   810bc:	d503201f 	nop
   810c0:	d503201f 	nop
   810c4:	d503201f 	nop
   810c8:	d503201f 	nop
   810cc:	d503201f 	nop
   810d0:	d503201f 	nop
   810d4:	d503201f 	nop
   810d8:	d503201f 	nop
   810dc:	d503201f 	nop
   810e0:	d503201f 	nop
   810e4:	d503201f 	nop
   810e8:	d503201f 	nop
   810ec:	d503201f 	nop
   810f0:	d503201f 	nop
   810f4:	d503201f 	nop
   810f8:	d503201f 	nop
   810fc:	d503201f 	nop
   81100:	d503201f 	nop
   81104:	d503201f 	nop
   81108:	d503201f 	nop
   8110c:	d503201f 	nop
   81110:	d503201f 	nop
   81114:	d503201f 	nop
   81118:	d503201f 	nop
   8111c:	d503201f 	nop
   81120:	d503201f 	nop
   81124:	d503201f 	nop
   81128:	d503201f 	nop
   8112c:	d503201f 	nop
   81130:	d503201f 	nop
   81134:	d503201f 	nop
   81138:	d503201f 	nop
   8113c:	d503201f 	nop
   81140:	d503201f 	nop
   81144:	d503201f 	nop
   81148:	d503201f 	nop
   8114c:	d503201f 	nop
   81150:	d503201f 	nop
   81154:	d503201f 	nop
   81158:	d503201f 	nop
   8115c:	d503201f 	nop
   81160:	d503201f 	nop
   81164:	d503201f 	nop
   81168:	d503201f 	nop
   8116c:	d503201f 	nop
   81170:	d503201f 	nop
   81174:	d503201f 	nop
   81178:	d503201f 	nop
   8117c:	d503201f 	nop
   81180:	d503201f 	nop
   81184:	d503201f 	nop
   81188:	d503201f 	nop
   8118c:	d503201f 	nop
   81190:	d503201f 	nop
   81194:	d503201f 	nop
   81198:	d503201f 	nop
   8119c:	d503201f 	nop
   811a0:	d503201f 	nop
   811a4:	d503201f 	nop
   811a8:	d503201f 	nop
   811ac:	d503201f 	nop
   811b0:	d503201f 	nop
   811b4:	d503201f 	nop
   811b8:	d503201f 	nop
   811bc:	d503201f 	nop
   811c0:	d503201f 	nop
   811c4:	d503201f 	nop
   811c8:	d503201f 	nop
   811cc:	d503201f 	nop
   811d0:	d503201f 	nop
   811d4:	d503201f 	nop
   811d8:	d503201f 	nop
   811dc:	d503201f 	nop
   811e0:	d503201f 	nop
   811e4:	d503201f 	nop
   811e8:	d503201f 	nop
   811ec:	d503201f 	nop
   811f0:	d503201f 	nop
   811f4:	d503201f 	nop
   811f8:	d503201f 	nop
   811fc:	d503201f 	nop
   81200:	d503201f 	nop
   81204:	d503201f 	nop
   81208:	d503201f 	nop
   8120c:	d503201f 	nop
   81210:	d503201f 	nop
   81214:	d503201f 	nop
   81218:	d503201f 	nop
   8121c:	d503201f 	nop
   81220:	d503201f 	nop
   81224:	d503201f 	nop
   81228:	d503201f 	nop
   8122c:	d503201f 	nop
   81230:	d503201f 	nop
   81234:	d503201f 	nop
   81238:	d503201f 	nop
   8123c:	d503201f 	nop
   81240:	d503201f 	nop
   81244:	d503201f 	nop
   81248:	d503201f 	nop
   8124c:	d503201f 	nop
   81250:	d503201f 	nop
   81254:	d503201f 	nop
   81258:	d503201f 	nop
   8125c:	d503201f 	nop
   81260:	d503201f 	nop
   81264:	d503201f 	nop
   81268:	d503201f 	nop
   8126c:	d503201f 	nop
   81270:	d503201f 	nop
   81274:	d503201f 	nop
   81278:	d503201f 	nop
   8127c:	d503201f 	nop
   81280:	d503201f 	nop
   81284:	d503201f 	nop
   81288:	d503201f 	nop
   8128c:	d503201f 	nop
   81290:	d503201f 	nop
   81294:	d503201f 	nop
   81298:	d503201f 	nop
   8129c:	d503201f 	nop
   812a0:	d503201f 	nop
   812a4:	d503201f 	nop
   812a8:	d503201f 	nop
   812ac:	d503201f 	nop
   812b0:	d503201f 	nop
   812b4:	d503201f 	nop
   812b8:	d503201f 	nop
   812bc:	d503201f 	nop
   812c0:	d503201f 	nop
   812c4:	d503201f 	nop
   812c8:	d503201f 	nop
   812cc:	d503201f 	nop
   812d0:	d503201f 	nop
   812d4:	d503201f 	nop
   812d8:	d503201f 	nop
   812dc:	d503201f 	nop
   812e0:	d503201f 	nop
   812e4:	d503201f 	nop
   812e8:	d503201f 	nop
   812ec:	d503201f 	nop
   812f0:	d503201f 	nop
   812f4:	d503201f 	nop
   812f8:	d503201f 	nop
   812fc:	d503201f 	nop
   81300:	d503201f 	nop
   81304:	d503201f 	nop
   81308:	d503201f 	nop
   8130c:	d503201f 	nop
   81310:	d503201f 	nop
   81314:	d503201f 	nop
   81318:	d503201f 	nop
   8131c:	d503201f 	nop
   81320:	d503201f 	nop
   81324:	d503201f 	nop
   81328:	d503201f 	nop
   8132c:	d503201f 	nop
   81330:	d503201f 	nop
   81334:	d503201f 	nop
   81338:	d503201f 	nop
   8133c:	d503201f 	nop
   81340:	d503201f 	nop
   81344:	d503201f 	nop
   81348:	d503201f 	nop
   8134c:	d503201f 	nop
   81350:	d503201f 	nop
   81354:	d503201f 	nop
   81358:	d503201f 	nop
   8135c:	d503201f 	nop
   81360:	d503201f 	nop
   81364:	d503201f 	nop
   81368:	d503201f 	nop
   8136c:	d503201f 	nop
   81370:	d503201f 	nop
   81374:	d503201f 	nop
   81378:	d503201f 	nop
   8137c:	d503201f 	nop
   81380:	d503201f 	nop
   81384:	d503201f 	nop
   81388:	d503201f 	nop
   8138c:	d503201f 	nop
   81390:	d503201f 	nop
   81394:	d503201f 	nop
   81398:	d503201f 	nop
   8139c:	d503201f 	nop
   813a0:	d503201f 	nop
   813a4:	d503201f 	nop
   813a8:	d503201f 	nop
   813ac:	d503201f 	nop
   813b0:	d503201f 	nop
   813b4:	d503201f 	nop
   813b8:	d503201f 	nop
   813bc:	d503201f 	nop
   813c0:	d503201f 	nop
   813c4:	d503201f 	nop
   813c8:	d503201f 	nop
   813cc:	d503201f 	nop
   813d0:	d503201f 	nop
   813d4:	d503201f 	nop
   813d8:	d503201f 	nop
   813dc:	d503201f 	nop
   813e0:	d503201f 	nop
   813e4:	d503201f 	nop
   813e8:	d503201f 	nop
   813ec:	d503201f 	nop
   813f0:	d503201f 	nop
   813f4:	d503201f 	nop
   813f8:	d503201f 	nop
   813fc:	d503201f 	nop
   81400:	d503201f 	nop
   81404:	d503201f 	nop
   81408:	d503201f 	nop
   8140c:	d503201f 	nop
   81410:	d503201f 	nop
   81414:	d503201f 	nop
   81418:	d503201f 	nop
   8141c:	d503201f 	nop
   81420:	d503201f 	nop
   81424:	d503201f 	nop
   81428:	d503201f 	nop
   8142c:	d503201f 	nop
   81430:	d503201f 	nop
   81434:	d503201f 	nop
   81438:	d503201f 	nop
   8143c:	d503201f 	nop
   81440:	d503201f 	nop
   81444:	d503201f 	nop
   81448:	d503201f 	nop
   8144c:	d503201f 	nop
   81450:	d503201f 	nop
   81454:	d503201f 	nop
   81458:	d503201f 	nop
   8145c:	d503201f 	nop
   81460:	d503201f 	nop
   81464:	d503201f 	nop
   81468:	d503201f 	nop
   8146c:	d503201f 	nop
   81470:	d503201f 	nop
   81474:	d503201f 	nop
   81478:	d503201f 	nop
   8147c:	d503201f 	nop
   81480:	d503201f 	nop
   81484:	d503201f 	nop
   81488:	d503201f 	nop
   8148c:	d503201f 	nop
   81490:	d503201f 	nop
   81494:	d503201f 	nop
   81498:	d503201f 	nop
   8149c:	d503201f 	nop
   814a0:	d503201f 	nop
   814a4:	d503201f 	nop
   814a8:	d503201f 	nop
   814ac:	d503201f 	nop
   814b0:	d503201f 	nop
   814b4:	d503201f 	nop
   814b8:	d503201f 	nop
   814bc:	d503201f 	nop
   814c0:	d503201f 	nop
   814c4:	d503201f 	nop
   814c8:	d503201f 	nop
   814cc:	d503201f 	nop
   814d0:	d503201f 	nop
   814d4:	d503201f 	nop
   814d8:	d503201f 	nop
   814dc:	d503201f 	nop
   814e0:	d503201f 	nop
   814e4:	d503201f 	nop
   814e8:	d503201f 	nop
   814ec:	d503201f 	nop
   814f0:	d503201f 	nop
   814f4:	d503201f 	nop
   814f8:	d503201f 	nop
   814fc:	d503201f 	nop
   81500:	d503201f 	nop
   81504:	d503201f 	nop
   81508:	d503201f 	nop
   8150c:	d503201f 	nop
   81510:	d503201f 	nop
   81514:	d503201f 	nop
   81518:	d503201f 	nop
   8151c:	d503201f 	nop
   81520:	d503201f 	nop
   81524:	d503201f 	nop
   81528:	d503201f 	nop
   8152c:	d503201f 	nop
   81530:	d503201f 	nop
   81534:	d503201f 	nop
   81538:	d503201f 	nop
   8153c:	d503201f 	nop
   81540:	d503201f 	nop
   81544:	d503201f 	nop
   81548:	d503201f 	nop
   8154c:	d503201f 	nop
   81550:	d503201f 	nop
   81554:	d503201f 	nop
   81558:	d503201f 	nop
   8155c:	d503201f 	nop
   81560:	d503201f 	nop
   81564:	d503201f 	nop
   81568:	d503201f 	nop
   8156c:	d503201f 	nop
   81570:	d503201f 	nop
   81574:	d503201f 	nop
   81578:	d503201f 	nop
   8157c:	d503201f 	nop
   81580:	d503201f 	nop
   81584:	d503201f 	nop
   81588:	d503201f 	nop
   8158c:	d503201f 	nop
   81590:	d503201f 	nop
   81594:	d503201f 	nop
   81598:	d503201f 	nop
   8159c:	d503201f 	nop
   815a0:	d503201f 	nop
   815a4:	d503201f 	nop
   815a8:	d503201f 	nop
   815ac:	d503201f 	nop
   815b0:	d503201f 	nop
   815b4:	d503201f 	nop
   815b8:	d503201f 	nop
   815bc:	d503201f 	nop
   815c0:	d503201f 	nop
   815c4:	d503201f 	nop
   815c8:	d503201f 	nop
   815cc:	d503201f 	nop
   815d0:	d503201f 	nop
   815d4:	d503201f 	nop
   815d8:	d503201f 	nop
   815dc:	d503201f 	nop
   815e0:	d503201f 	nop
   815e4:	d503201f 	nop
   815e8:	d503201f 	nop
   815ec:	d503201f 	nop
   815f0:	d503201f 	nop
   815f4:	d503201f 	nop
   815f8:	d503201f 	nop
   815fc:	d503201f 	nop
   81600:	d503201f 	nop
   81604:	d503201f 	nop
   81608:	d503201f 	nop
   8160c:	d503201f 	nop
   81610:	d503201f 	nop
   81614:	d503201f 	nop
   81618:	d503201f 	nop
   8161c:	d503201f 	nop
   81620:	d503201f 	nop
   81624:	d503201f 	nop
   81628:	d503201f 	nop
   8162c:	d503201f 	nop
   81630:	d503201f 	nop
   81634:	d503201f 	nop
   81638:	d503201f 	nop
   8163c:	d503201f 	nop
   81640:	d503201f 	nop
   81644:	d503201f 	nop
   81648:	d503201f 	nop
   8164c:	d503201f 	nop
   81650:	d503201f 	nop
   81654:	d503201f 	nop
   81658:	d503201f 	nop
   8165c:	d503201f 	nop
   81660:	d503201f 	nop
   81664:	d503201f 	nop
   81668:	d503201f 	nop
   8166c:	d503201f 	nop
   81670:	d503201f 	nop
   81674:	d503201f 	nop
   81678:	d503201f 	nop
   8167c:	d503201f 	nop
   81680:	d503201f 	nop
   81684:	d503201f 	nop
   81688:	d503201f 	nop
   8168c:	d503201f 	nop
   81690:	d503201f 	nop
   81694:	d503201f 	nop
   81698:	d503201f 	nop
   8169c:	d503201f 	nop
   816a0:	d503201f 	nop
   816a4:	d503201f 	nop
   816a8:	d503201f 	nop
   816ac:	d503201f 	nop
   816b0:	d503201f 	nop
   816b4:	d503201f 	nop
   816b8:	d503201f 	nop
   816bc:	d503201f 	nop
   816c0:	d503201f 	nop
   816c4:	d503201f 	nop
   816c8:	d503201f 	nop
   816cc:	d503201f 	nop
   816d0:	d503201f 	nop
   816d4:	d503201f 	nop
   816d8:	d503201f 	nop
   816dc:	d503201f 	nop
   816e0:	d503201f 	nop
   816e4:	d503201f 	nop
   816e8:	d503201f 	nop
   816ec:	d503201f 	nop
   816f0:	d503201f 	nop
   816f4:	d503201f 	nop
   816f8:	d503201f 	nop
   816fc:	d503201f 	nop
   81700:	d503201f 	nop
   81704:	d503201f 	nop
   81708:	d503201f 	nop
   8170c:	d503201f 	nop
   81710:	d503201f 	nop
   81714:	d503201f 	nop
   81718:	d503201f 	nop
   8171c:	d503201f 	nop
   81720:	d503201f 	nop
   81724:	d503201f 	nop
   81728:	d503201f 	nop
   8172c:	d503201f 	nop
   81730:	d503201f 	nop
   81734:	d503201f 	nop
   81738:	d503201f 	nop
   8173c:	d503201f 	nop
   81740:	d503201f 	nop
   81744:	d503201f 	nop
   81748:	d503201f 	nop
   8174c:	d503201f 	nop
   81750:	d503201f 	nop
   81754:	d503201f 	nop
   81758:	d503201f 	nop
   8175c:	d503201f 	nop
   81760:	d503201f 	nop
   81764:	d503201f 	nop
   81768:	d503201f 	nop
   8176c:	d503201f 	nop
   81770:	d503201f 	nop
   81774:	d503201f 	nop
   81778:	d503201f 	nop
   8177c:	d503201f 	nop
   81780:	d503201f 	nop
   81784:	d503201f 	nop
   81788:	d503201f 	nop
   8178c:	d503201f 	nop
   81790:	d503201f 	nop
   81794:	d503201f 	nop
   81798:	d503201f 	nop
   8179c:	d503201f 	nop
   817a0:	d503201f 	nop
   817a4:	d503201f 	nop
   817a8:	d503201f 	nop
   817ac:	d503201f 	nop
   817b0:	d503201f 	nop
   817b4:	d503201f 	nop
   817b8:	d503201f 	nop
   817bc:	d503201f 	nop
   817c0:	d503201f 	nop
   817c4:	d503201f 	nop
   817c8:	d503201f 	nop
   817cc:	d503201f 	nop
   817d0:	d503201f 	nop
   817d4:	d503201f 	nop
   817d8:	d503201f 	nop
   817dc:	d503201f 	nop
   817e0:	d503201f 	nop
   817e4:	d503201f 	nop
   817e8:	d503201f 	nop
   817ec:	d503201f 	nop
   817f0:	d503201f 	nop
   817f4:	d503201f 	nop
   817f8:	d503201f 	nop
   817fc:	d503201f 	nop

0000000000081800 <VectorTable>:
   81800:	17fffa00 	b	80000 <_start>
   81804:	d503201f 	nop
   81808:	d503201f 	nop
   8180c:	d503201f 	nop
   81810:	d503201f 	nop
   81814:	d503201f 	nop
   81818:	d503201f 	nop
   8181c:	d503201f 	nop
   81820:	d503201f 	nop
   81824:	d503201f 	nop
   81828:	d503201f 	nop
   8182c:	d503201f 	nop
   81830:	d503201f 	nop
   81834:	d503201f 	nop
   81838:	d503201f 	nop
   8183c:	d503201f 	nop
   81840:	d503201f 	nop
   81844:	d503201f 	nop
   81848:	d503201f 	nop
   8184c:	d503201f 	nop
   81850:	d503201f 	nop
   81854:	d503201f 	nop
   81858:	d503201f 	nop
   8185c:	d503201f 	nop
   81860:	d503201f 	nop
   81864:	d503201f 	nop
   81868:	d503201f 	nop
   8186c:	d503201f 	nop
   81870:	d503201f 	nop
   81874:	d503201f 	nop
   81878:	d503201f 	nop
   8187c:	d503201f 	nop
   81880:	17fffa4e 	b	801b8 <hang>
   81884:	d503201f 	nop
   81888:	d503201f 	nop
   8188c:	d503201f 	nop
   81890:	d503201f 	nop
   81894:	d503201f 	nop
   81898:	d503201f 	nop
   8189c:	d503201f 	nop
   818a0:	d503201f 	nop
   818a4:	d503201f 	nop
   818a8:	d503201f 	nop
   818ac:	d503201f 	nop
   818b0:	d503201f 	nop
   818b4:	d503201f 	nop
   818b8:	d503201f 	nop
   818bc:	d503201f 	nop
   818c0:	d503201f 	nop
   818c4:	d503201f 	nop
   818c8:	d503201f 	nop
   818cc:	d503201f 	nop
   818d0:	d503201f 	nop
   818d4:	d503201f 	nop
   818d8:	d503201f 	nop
   818dc:	d503201f 	nop
   818e0:	d503201f 	nop
   818e4:	d503201f 	nop
   818e8:	d503201f 	nop
   818ec:	d503201f 	nop
   818f0:	d503201f 	nop
   818f4:	d503201f 	nop
   818f8:	d503201f 	nop
   818fc:	d503201f 	nop
   81900:	17fffa2e 	b	801b8 <hang>
   81904:	d503201f 	nop
   81908:	d503201f 	nop
   8190c:	d503201f 	nop
   81910:	d503201f 	nop
   81914:	d503201f 	nop
   81918:	d503201f 	nop
   8191c:	d503201f 	nop
   81920:	d503201f 	nop
   81924:	d503201f 	nop
   81928:	d503201f 	nop
   8192c:	d503201f 	nop
   81930:	d503201f 	nop
   81934:	d503201f 	nop
   81938:	d503201f 	nop
   8193c:	d503201f 	nop
   81940:	d503201f 	nop
   81944:	d503201f 	nop
   81948:	d503201f 	nop
   8194c:	d503201f 	nop
   81950:	d503201f 	nop
   81954:	d503201f 	nop
   81958:	d503201f 	nop
   8195c:	d503201f 	nop
   81960:	d503201f 	nop
   81964:	d503201f 	nop
   81968:	d503201f 	nop
   8196c:	d503201f 	nop
   81970:	d503201f 	nop
   81974:	d503201f 	nop
   81978:	d503201f 	nop
   8197c:	d503201f 	nop
   81980:	17fffa0e 	b	801b8 <hang>
   81984:	d503201f 	nop
   81988:	d503201f 	nop
   8198c:	d503201f 	nop
   81990:	d503201f 	nop
   81994:	d503201f 	nop
   81998:	d503201f 	nop
   8199c:	d503201f 	nop
   819a0:	d503201f 	nop
   819a4:	d503201f 	nop
   819a8:	d503201f 	nop
   819ac:	d503201f 	nop
   819b0:	d503201f 	nop
   819b4:	d503201f 	nop
   819b8:	d503201f 	nop
   819bc:	d503201f 	nop
   819c0:	d503201f 	nop
   819c4:	d503201f 	nop
   819c8:	d503201f 	nop
   819cc:	d503201f 	nop
   819d0:	d503201f 	nop
   819d4:	d503201f 	nop
   819d8:	d503201f 	nop
   819dc:	d503201f 	nop
   819e0:	d503201f 	nop
   819e4:	d503201f 	nop
   819e8:	d503201f 	nop
   819ec:	d503201f 	nop
   819f0:	d503201f 	nop
   819f4:	d503201f 	nop
   819f8:	d503201f 	nop
   819fc:	d503201f 	nop
   81a00:	17fff9ee 	b	801b8 <hang>
   81a04:	d503201f 	nop
   81a08:	d503201f 	nop
   81a0c:	d503201f 	nop
   81a10:	d503201f 	nop
   81a14:	d503201f 	nop
   81a18:	d503201f 	nop
   81a1c:	d503201f 	nop
   81a20:	d503201f 	nop
   81a24:	d503201f 	nop
   81a28:	d503201f 	nop
   81a2c:	d503201f 	nop
   81a30:	d503201f 	nop
   81a34:	d503201f 	nop
   81a38:	d503201f 	nop
   81a3c:	d503201f 	nop
   81a40:	d503201f 	nop
   81a44:	d503201f 	nop
   81a48:	d503201f 	nop
   81a4c:	d503201f 	nop
   81a50:	d503201f 	nop
   81a54:	d503201f 	nop
   81a58:	d503201f 	nop
   81a5c:	d503201f 	nop
   81a60:	d503201f 	nop
   81a64:	d503201f 	nop
   81a68:	d503201f 	nop
   81a6c:	d503201f 	nop
   81a70:	d503201f 	nop
   81a74:	d503201f 	nop
   81a78:	d503201f 	nop
   81a7c:	d503201f 	nop
   81a80:	17fffd68 	b	81020 <irq_handler_stub>
   81a84:	d503201f 	nop
   81a88:	d503201f 	nop
   81a8c:	d503201f 	nop
   81a90:	d503201f 	nop
   81a94:	d503201f 	nop
   81a98:	d503201f 	nop
   81a9c:	d503201f 	nop
   81aa0:	d503201f 	nop
   81aa4:	d503201f 	nop
   81aa8:	d503201f 	nop
   81aac:	d503201f 	nop
   81ab0:	d503201f 	nop
   81ab4:	d503201f 	nop
   81ab8:	d503201f 	nop
   81abc:	d503201f 	nop
   81ac0:	d503201f 	nop
   81ac4:	d503201f 	nop
   81ac8:	d503201f 	nop
   81acc:	d503201f 	nop
   81ad0:	d503201f 	nop
   81ad4:	d503201f 	nop
   81ad8:	d503201f 	nop
   81adc:	d503201f 	nop
   81ae0:	d503201f 	nop
   81ae4:	d503201f 	nop
   81ae8:	d503201f 	nop
   81aec:	d503201f 	nop
   81af0:	d503201f 	nop
   81af4:	d503201f 	nop
   81af8:	d503201f 	nop
   81afc:	d503201f 	nop
   81b00:	17fff9ae 	b	801b8 <hang>
   81b04:	d503201f 	nop
   81b08:	d503201f 	nop
   81b0c:	d503201f 	nop
   81b10:	d503201f 	nop
   81b14:	d503201f 	nop
   81b18:	d503201f 	nop
   81b1c:	d503201f 	nop
   81b20:	d503201f 	nop
   81b24:	d503201f 	nop
   81b28:	d503201f 	nop
   81b2c:	d503201f 	nop
   81b30:	d503201f 	nop
   81b34:	d503201f 	nop
   81b38:	d503201f 	nop
   81b3c:	d503201f 	nop
   81b40:	d503201f 	nop
   81b44:	d503201f 	nop
   81b48:	d503201f 	nop
   81b4c:	d503201f 	nop
   81b50:	d503201f 	nop
   81b54:	d503201f 	nop
   81b58:	d503201f 	nop
   81b5c:	d503201f 	nop
   81b60:	d503201f 	nop
   81b64:	d503201f 	nop
   81b68:	d503201f 	nop
   81b6c:	d503201f 	nop
   81b70:	d503201f 	nop
   81b74:	d503201f 	nop
   81b78:	d503201f 	nop
   81b7c:	d503201f 	nop
   81b80:	17fff98e 	b	801b8 <hang>
   81b84:	d503201f 	nop
   81b88:	d503201f 	nop
   81b8c:	d503201f 	nop
   81b90:	d503201f 	nop
   81b94:	d503201f 	nop
   81b98:	d503201f 	nop
   81b9c:	d503201f 	nop
   81ba0:	d503201f 	nop
   81ba4:	d503201f 	nop
   81ba8:	d503201f 	nop
   81bac:	d503201f 	nop
   81bb0:	d503201f 	nop
   81bb4:	d503201f 	nop
   81bb8:	d503201f 	nop
   81bbc:	d503201f 	nop
   81bc0:	d503201f 	nop
   81bc4:	d503201f 	nop
   81bc8:	d503201f 	nop
   81bcc:	d503201f 	nop
   81bd0:	d503201f 	nop
   81bd4:	d503201f 	nop
   81bd8:	d503201f 	nop
   81bdc:	d503201f 	nop
   81be0:	d503201f 	nop
   81be4:	d503201f 	nop
   81be8:	d503201f 	nop
   81bec:	d503201f 	nop
   81bf0:	d503201f 	nop
   81bf4:	d503201f 	nop
   81bf8:	d503201f 	nop
   81bfc:	d503201f 	nop
   81c00:	17fff96e 	b	801b8 <hang>
   81c04:	d503201f 	nop
   81c08:	d503201f 	nop
   81c0c:	d503201f 	nop
   81c10:	d503201f 	nop
   81c14:	d503201f 	nop
   81c18:	d503201f 	nop
   81c1c:	d503201f 	nop
   81c20:	d503201f 	nop
   81c24:	d503201f 	nop
   81c28:	d503201f 	nop
   81c2c:	d503201f 	nop
   81c30:	d503201f 	nop
   81c34:	d503201f 	nop
   81c38:	d503201f 	nop
   81c3c:	d503201f 	nop
   81c40:	d503201f 	nop
   81c44:	d503201f 	nop
   81c48:	d503201f 	nop
   81c4c:	d503201f 	nop
   81c50:	d503201f 	nop
   81c54:	d503201f 	nop
   81c58:	d503201f 	nop
   81c5c:	d503201f 	nop
   81c60:	d503201f 	nop
   81c64:	d503201f 	nop
   81c68:	d503201f 	nop
   81c6c:	d503201f 	nop
   81c70:	d503201f 	nop
   81c74:	d503201f 	nop
   81c78:	d503201f 	nop
   81c7c:	d503201f 	nop
   81c80:	17fff94e 	b	801b8 <hang>
   81c84:	d503201f 	nop
   81c88:	d503201f 	nop
   81c8c:	d503201f 	nop
   81c90:	d503201f 	nop
   81c94:	d503201f 	nop
   81c98:	d503201f 	nop
   81c9c:	d503201f 	nop
   81ca0:	d503201f 	nop
   81ca4:	d503201f 	nop
   81ca8:	d503201f 	nop
   81cac:	d503201f 	nop
   81cb0:	d503201f 	nop
   81cb4:	d503201f 	nop
   81cb8:	d503201f 	nop
   81cbc:	d503201f 	nop
   81cc0:	d503201f 	nop
   81cc4:	d503201f 	nop
   81cc8:	d503201f 	nop
   81ccc:	d503201f 	nop
   81cd0:	d503201f 	nop
   81cd4:	d503201f 	nop
   81cd8:	d503201f 	nop
   81cdc:	d503201f 	nop
   81ce0:	d503201f 	nop
   81ce4:	d503201f 	nop
   81ce8:	d503201f 	nop
   81cec:	d503201f 	nop
   81cf0:	d503201f 	nop
   81cf4:	d503201f 	nop
   81cf8:	d503201f 	nop
   81cfc:	d503201f 	nop
   81d00:	17fff92e 	b	801b8 <hang>
   81d04:	d503201f 	nop
   81d08:	d503201f 	nop
   81d0c:	d503201f 	nop
   81d10:	d503201f 	nop
   81d14:	d503201f 	nop
   81d18:	d503201f 	nop
   81d1c:	d503201f 	nop
   81d20:	d503201f 	nop
   81d24:	d503201f 	nop
   81d28:	d503201f 	nop
   81d2c:	d503201f 	nop
   81d30:	d503201f 	nop
   81d34:	d503201f 	nop
   81d38:	d503201f 	nop
   81d3c:	d503201f 	nop
   81d40:	d503201f 	nop
   81d44:	d503201f 	nop
   81d48:	d503201f 	nop
   81d4c:	d503201f 	nop
   81d50:	d503201f 	nop
   81d54:	d503201f 	nop
   81d58:	d503201f 	nop
   81d5c:	d503201f 	nop
   81d60:	d503201f 	nop
   81d64:	d503201f 	nop
   81d68:	d503201f 	nop
   81d6c:	d503201f 	nop
   81d70:	d503201f 	nop
   81d74:	d503201f 	nop
   81d78:	d503201f 	nop
   81d7c:	d503201f 	nop
   81d80:	17fff90e 	b	801b8 <hang>
   81d84:	d503201f 	nop
   81d88:	d503201f 	nop
   81d8c:	d503201f 	nop
   81d90:	d503201f 	nop
   81d94:	d503201f 	nop
   81d98:	d503201f 	nop
   81d9c:	d503201f 	nop
   81da0:	d503201f 	nop
   81da4:	d503201f 	nop
   81da8:	d503201f 	nop
   81dac:	d503201f 	nop
   81db0:	d503201f 	nop
   81db4:	d503201f 	nop
   81db8:	d503201f 	nop
   81dbc:	d503201f 	nop
   81dc0:	d503201f 	nop
   81dc4:	d503201f 	nop
   81dc8:	d503201f 	nop
   81dcc:	d503201f 	nop
   81dd0:	d503201f 	nop
   81dd4:	d503201f 	nop
   81dd8:	d503201f 	nop
   81ddc:	d503201f 	nop
   81de0:	d503201f 	nop
   81de4:	d503201f 	nop
   81de8:	d503201f 	nop
   81dec:	d503201f 	nop
   81df0:	d503201f 	nop
   81df4:	d503201f 	nop
   81df8:	d503201f 	nop
   81dfc:	d503201f 	nop
   81e00:	17fff8ee 	b	801b8 <hang>
   81e04:	d503201f 	nop
   81e08:	d503201f 	nop
   81e0c:	d503201f 	nop
   81e10:	d503201f 	nop
   81e14:	d503201f 	nop
   81e18:	d503201f 	nop
   81e1c:	d503201f 	nop
   81e20:	d503201f 	nop
   81e24:	d503201f 	nop
   81e28:	d503201f 	nop
   81e2c:	d503201f 	nop
   81e30:	d503201f 	nop
   81e34:	d503201f 	nop
   81e38:	d503201f 	nop
   81e3c:	d503201f 	nop
   81e40:	d503201f 	nop
   81e44:	d503201f 	nop
   81e48:	d503201f 	nop
   81e4c:	d503201f 	nop
   81e50:	d503201f 	nop
   81e54:	d503201f 	nop
   81e58:	d503201f 	nop
   81e5c:	d503201f 	nop
   81e60:	d503201f 	nop
   81e64:	d503201f 	nop
   81e68:	d503201f 	nop
   81e6c:	d503201f 	nop
   81e70:	d503201f 	nop
   81e74:	d503201f 	nop
   81e78:	d503201f 	nop
   81e7c:	d503201f 	nop
   81e80:	17fff8ce 	b	801b8 <hang>
   81e84:	d503201f 	nop
   81e88:	d503201f 	nop
   81e8c:	d503201f 	nop
   81e90:	d503201f 	nop
   81e94:	d503201f 	nop
   81e98:	d503201f 	nop
   81e9c:	d503201f 	nop
   81ea0:	d503201f 	nop
   81ea4:	d503201f 	nop
   81ea8:	d503201f 	nop
   81eac:	d503201f 	nop
   81eb0:	d503201f 	nop
   81eb4:	d503201f 	nop
   81eb8:	d503201f 	nop
   81ebc:	d503201f 	nop
   81ec0:	d503201f 	nop
   81ec4:	d503201f 	nop
   81ec8:	d503201f 	nop
   81ecc:	d503201f 	nop
   81ed0:	d503201f 	nop
   81ed4:	d503201f 	nop
   81ed8:	d503201f 	nop
   81edc:	d503201f 	nop
   81ee0:	d503201f 	nop
   81ee4:	d503201f 	nop
   81ee8:	d503201f 	nop
   81eec:	d503201f 	nop
   81ef0:	d503201f 	nop
   81ef4:	d503201f 	nop
   81ef8:	d503201f 	nop
   81efc:	d503201f 	nop
   81f00:	17fff8ae 	b	801b8 <hang>
   81f04:	d503201f 	nop
   81f08:	d503201f 	nop
   81f0c:	d503201f 	nop
   81f10:	d503201f 	nop
   81f14:	d503201f 	nop
   81f18:	d503201f 	nop
   81f1c:	d503201f 	nop
   81f20:	d503201f 	nop
   81f24:	d503201f 	nop
   81f28:	d503201f 	nop
   81f2c:	d503201f 	nop
   81f30:	d503201f 	nop
   81f34:	d503201f 	nop
   81f38:	d503201f 	nop
   81f3c:	d503201f 	nop
   81f40:	d503201f 	nop
   81f44:	d503201f 	nop
   81f48:	d503201f 	nop
   81f4c:	d503201f 	nop
   81f50:	d503201f 	nop
   81f54:	d503201f 	nop
   81f58:	d503201f 	nop
   81f5c:	d503201f 	nop
   81f60:	d503201f 	nop
   81f64:	d503201f 	nop
   81f68:	d503201f 	nop
   81f6c:	d503201f 	nop
   81f70:	d503201f 	nop
   81f74:	d503201f 	nop
   81f78:	d503201f 	nop
   81f7c:	d503201f 	nop
   81f80:	17fff88e 	b	801b8 <hang>
   81f84:	00000000 	.inst	0x00000000 ; undefined
   81f88:	00085938 	.word	0x00085938
   81f8c:	00000000 	.word	0x00000000

0000000000081f90 <IsEqualUGUIDB40E129B56624BD7B5F8339C025F3EF0>:
   81f90:	d10083ff 	sub	sp, sp, #0x20
   81f94:	f90007e0 	str	x0, [sp, #8]
   81f98:	f90003e1 	str	x1, [sp]
   81f9c:	39007fff 	strb	wzr, [sp, #31]
   81fa0:	39007bff 	strb	wzr, [sp, #30]
   81fa4:	39007bff 	strb	wzr, [sp, #30]
   81fa8:	14000015 	b	81ffc <IsEqualUGUIDB40E129B56624BD7B5F8339C025F3EF0+0x6c>
   81fac:	39807be0 	ldrsb	x0, [sp, #30]
   81fb0:	f94007e1 	ldr	x1, [sp, #8]
   81fb4:	8b000020 	add	x0, x1, x0
   81fb8:	39400001 	ldrb	w1, [x0]
   81fbc:	39807be0 	ldrsb	x0, [sp, #30]
   81fc0:	f94003e2 	ldr	x2, [sp]
   81fc4:	8b000040 	add	x0, x2, x0
   81fc8:	39400000 	ldrb	w0, [x0]
   81fcc:	6b00003f 	cmp	w1, w0
   81fd0:	54000081 	b.ne	81fe0 <IsEqualUGUIDB40E129B56624BD7B5F8339C025F3EF0+0x50>  // b.any
   81fd4:	52800020 	mov	w0, #0x1                   	// #1
   81fd8:	39007fe0 	strb	w0, [sp, #31]
   81fdc:	14000003 	b	81fe8 <IsEqualUGUIDB40E129B56624BD7B5F8339C025F3EF0+0x58>
   81fe0:	39007fff 	strb	wzr, [sp, #31]
   81fe4:	14000009 	b	82008 <IsEqualUGUIDB40E129B56624BD7B5F8339C025F3EF0+0x78>
   81fe8:	39c07be0 	ldrsb	w0, [sp, #30]
   81fec:	12001c00 	and	w0, w0, #0xff
   81ff0:	11000400 	add	w0, w0, #0x1
   81ff4:	12001c00 	and	w0, w0, #0xff
   81ff8:	39007be0 	strb	w0, [sp, #30]
   81ffc:	39c07be0 	ldrsb	w0, [sp, #30]
   82000:	7100441f 	cmp	w0, #0x11
   82004:	54fffd4d 	b.le	81fac <IsEqualUGUIDB40E129B56624BD7B5F8339C025F3EF0+0x1c>
   82008:	39407fe0 	ldrb	w0, [sp, #31]
   8200c:	910083ff 	add	sp, sp, #0x20
   82010:	d65f03c0 	ret

0000000000082014 <CEcoUART1Factory_025F3EF0_QueryInterface>:
   82014:	a9bd7bfd 	stp	x29, x30, [sp, #-48]!
   82018:	910003fd 	mov	x29, sp
   8201c:	f90017a0 	str	x0, [x29, #40]
   82020:	f90013a1 	str	x1, [x29, #32]
   82024:	f9000fa2 	str	x2, [x29, #24]
   82028:	90000020 	adrp	x0, 86000 <g_xCEcoFactoryList1_42757331+0x100>
   8202c:	9102e000 	add	x0, x0, #0xb8
   82030:	aa0003e1 	mov	x1, x0
   82034:	f94013a0 	ldr	x0, [x29, #32]
   82038:	97ffffd6 	bl	81f90 <IsEqualUGUIDB40E129B56624BD7B5F8339C025F3EF0>
   8203c:	12001c00 	and	w0, w0, #0xff
   82040:	7100001f 	cmp	w0, #0x0
   82044:	54000121 	b.ne	82068 <CEcoUART1Factory_025F3EF0_QueryInterface+0x54>  // b.any
   82048:	90000020 	adrp	x0, 86000 <g_xCEcoFactoryList1_42757331+0x100>
   8204c:	91034000 	add	x0, x0, #0xd0
   82050:	aa0003e1 	mov	x1, x0
   82054:	f94013a0 	ldr	x0, [x29, #32]
   82058:	97ffffce 	bl	81f90 <IsEqualUGUIDB40E129B56624BD7B5F8339C025F3EF0>
   8205c:	12001c00 	and	w0, w0, #0xff
   82060:	7100001f 	cmp	w0, #0x0
   82064:	540001a0 	b.eq	82098 <CEcoUART1Factory_025F3EF0_QueryInterface+0x84>  // b.none
   82068:	f9400fa0 	ldr	x0, [x29, #24]
   8206c:	f94017a1 	ldr	x1, [x29, #40]
   82070:	f9000001 	str	x1, [x0]
   82074:	f9400fa0 	ldr	x0, [x29, #24]
   82078:	f9400000 	ldr	x0, [x0]
   8207c:	f9400000 	ldr	x0, [x0]
   82080:	f9400401 	ldr	x1, [x0, #8]
   82084:	f9400fa0 	ldr	x0, [x29, #24]
   82088:	f9400000 	ldr	x0, [x0]
   8208c:	d63f0020 	blr	x1
   82090:	52800000 	mov	w0, #0x0                   	// #0
   82094:	14000004 	b	820a4 <CEcoUART1Factory_025F3EF0_QueryInterface+0x90>
   82098:	f9400fa0 	ldr	x0, [x29, #24]
   8209c:	f900001f 	str	xzr, [x0]
   820a0:	12800000 	mov	w0, #0xffffffff            	// #-1
   820a4:	a8c37bfd 	ldp	x29, x30, [sp], #48
   820a8:	d65f03c0 	ret

00000000000820ac <CEcoUART1Factory_025F3EF0_AddRef>:
   820ac:	d10083ff 	sub	sp, sp, #0x20
   820b0:	f90007e0 	str	x0, [sp, #8]
   820b4:	f94007e0 	ldr	x0, [sp, #8]
   820b8:	f9000fe0 	str	x0, [sp, #24]
   820bc:	f94007e0 	ldr	x0, [sp, #8]
   820c0:	f100001f 	cmp	x0, #0x0
   820c4:	54000061 	b.ne	820d0 <CEcoUART1Factory_025F3EF0_AddRef+0x24>  // b.any
   820c8:	12800000 	mov	w0, #0xffffffff            	// #-1
   820cc:	14000008 	b	820ec <CEcoUART1Factory_025F3EF0_AddRef+0x40>
   820d0:	f9400fe0 	ldr	x0, [sp, #24]
   820d4:	b9400800 	ldr	w0, [x0, #8]
   820d8:	11000401 	add	w1, w0, #0x1
   820dc:	f9400fe0 	ldr	x0, [sp, #24]
   820e0:	b9000801 	str	w1, [x0, #8]
   820e4:	f9400fe0 	ldr	x0, [sp, #24]
   820e8:	b9400800 	ldr	w0, [x0, #8]
   820ec:	910083ff 	add	sp, sp, #0x20
   820f0:	d65f03c0 	ret

00000000000820f4 <CEcoUART1Factory_025F3EF0_Release>:
   820f4:	d10083ff 	sub	sp, sp, #0x20
   820f8:	f90007e0 	str	x0, [sp, #8]
   820fc:	f94007e0 	ldr	x0, [sp, #8]
   82100:	f9000fe0 	str	x0, [sp, #24]
   82104:	f94007e0 	ldr	x0, [sp, #8]
   82108:	f100001f 	cmp	x0, #0x0
   8210c:	54000061 	b.ne	82118 <CEcoUART1Factory_025F3EF0_Release+0x24>  // b.any
   82110:	12800000 	mov	w0, #0xffffffff            	// #-1
   82114:	1400000e 	b	8214c <CEcoUART1Factory_025F3EF0_Release+0x58>
   82118:	f9400fe0 	ldr	x0, [sp, #24]
   8211c:	b9400800 	ldr	w0, [x0, #8]
   82120:	51000401 	sub	w1, w0, #0x1
   82124:	f9400fe0 	ldr	x0, [sp, #24]
   82128:	b9000801 	str	w1, [x0, #8]
   8212c:	f9400fe0 	ldr	x0, [sp, #24]
   82130:	b9400800 	ldr	w0, [x0, #8]
   82134:	7100001f 	cmp	w0, #0x0
   82138:	54000061 	b.ne	82144 <CEcoUART1Factory_025F3EF0_Release+0x50>  // b.any
   8213c:	52800000 	mov	w0, #0x0                   	// #0
   82140:	14000003 	b	8214c <CEcoUART1Factory_025F3EF0_Release+0x58>
   82144:	f9400fe0 	ldr	x0, [sp, #24]
   82148:	b9400800 	ldr	w0, [x0, #8]
   8214c:	910083ff 	add	sp, sp, #0x20
   82150:	d65f03c0 	ret

0000000000082154 <CEcoUART1Factory_025F3EF0_Init>:
   82154:	a9bc7bfd 	stp	x29, x30, [sp, #-64]!
   82158:	910003fd 	mov	x29, sp
   8215c:	f90017a0 	str	x0, [x29, #40]
   82160:	f90013a1 	str	x1, [x29, #32]
   82164:	f9000fa2 	str	x2, [x29, #24]
   82168:	f94017a0 	ldr	x0, [x29, #40]
   8216c:	f9001fa0 	str	x0, [x29, #56]
   82170:	12800000 	mov	w0, #0xffffffff            	// #-1
   82174:	79006fa0 	strh	w0, [x29, #54]
   82178:	f94017a0 	ldr	x0, [x29, #40]
   8217c:	f100001f 	cmp	x0, #0x0
   82180:	54000061 	b.ne	8218c <CEcoUART1Factory_025F3EF0_Init+0x38>  // b.any
   82184:	12800000 	mov	w0, #0xffffffff            	// #-1
   82188:	14000008 	b	821a8 <CEcoUART1Factory_025F3EF0_Init+0x54>
   8218c:	f9401fa0 	ldr	x0, [x29, #56]
   82190:	f9400c02 	ldr	x2, [x0, #24]
   82194:	f94013a1 	ldr	x1, [x29, #32]
   82198:	f9400fa0 	ldr	x0, [x29, #24]
   8219c:	d63f0040 	blr	x2
   821a0:	79006fa0 	strh	w0, [x29, #54]
   821a4:	79c06fa0 	ldrsh	w0, [x29, #54]
   821a8:	a8c47bfd 	ldp	x29, x30, [sp], #64
   821ac:	d65f03c0 	ret

00000000000821b0 <CEcoUART1Factory_025F3EF0_Alloc>:
   821b0:	a9ba7bfd 	stp	x29, x30, [sp, #-96]!
   821b4:	910003fd 	mov	x29, sp
   821b8:	f9001fa0 	str	x0, [x29, #56]
   821bc:	f9001ba1 	str	x1, [x29, #48]
   821c0:	f90017a2 	str	x2, [x29, #40]
   821c4:	f90013a3 	str	x3, [x29, #32]
   821c8:	f9000fa4 	str	x4, [x29, #24]
   821cc:	f9401fa0 	ldr	x0, [x29, #56]
   821d0:	f9002fa0 	str	x0, [x29, #88]
   821d4:	f90027bf 	str	xzr, [x29, #72]
   821d8:	12800000 	mov	w0, #0xffffffff            	// #-1
   821dc:	7900afa0 	strh	w0, [x29, #86]
   821e0:	f9401fa0 	ldr	x0, [x29, #56]
   821e4:	f100001f 	cmp	x0, #0x0
   821e8:	54000061 	b.ne	821f4 <CEcoUART1Factory_025F3EF0_Alloc+0x44>  // b.any
   821ec:	12800000 	mov	w0, #0xffffffff            	// #-1
   821f0:	14000035 	b	822c4 <CEcoUART1Factory_025F3EF0_Alloc+0x114>
   821f4:	f94017a0 	ldr	x0, [x29, #40]
   821f8:	f100001f 	cmp	x0, #0x0
   821fc:	54000160 	b.eq	82228 <CEcoUART1Factory_025F3EF0_Alloc+0x78>  // b.none
   82200:	90000020 	adrp	x0, 86000 <g_xCEcoFactoryList1_42757331+0x100>
   82204:	9102e000 	add	x0, x0, #0xb8
   82208:	aa0003e1 	mov	x1, x0
   8220c:	f94013a0 	ldr	x0, [x29, #32]
   82210:	97ffff60 	bl	81f90 <IsEqualUGUIDB40E129B56624BD7B5F8339C025F3EF0>
   82214:	12001c00 	and	w0, w0, #0xff
   82218:	7100001f 	cmp	w0, #0x0
   8221c:	54000061 	b.ne	82228 <CEcoUART1Factory_025F3EF0_Alloc+0x78>  // b.any
   82220:	12800000 	mov	w0, #0xffffffff            	// #-1
   82224:	14000028 	b	822c4 <CEcoUART1Factory_025F3EF0_Alloc+0x114>
   82228:	f9402fa0 	ldr	x0, [x29, #88]
   8222c:	f9400803 	ldr	x3, [x0, #16]
   82230:	910123a0 	add	x0, x29, #0x48
   82234:	aa0003e2 	mov	x2, x0
   82238:	f94017a1 	ldr	x1, [x29, #40]
   8223c:	f9401ba0 	ldr	x0, [x29, #48]
   82240:	d63f0060 	blr	x3
   82244:	7900afa0 	strh	w0, [x29, #86]
   82248:	79c0afa0 	ldrsh	w0, [x29, #86]
   8224c:	7100001f 	cmp	w0, #0x0
   82250:	54000081 	b.ne	82260 <CEcoUART1Factory_025F3EF0_Alloc+0xb0>  // b.any
   82254:	f94027a0 	ldr	x0, [x29, #72]
   82258:	f100001f 	cmp	x0, #0x0
   8225c:	54000061 	b.ne	82268 <CEcoUART1Factory_025F3EF0_Alloc+0xb8>  // b.any
   82260:	12800000 	mov	w0, #0xffffffff            	// #-1
   82264:	14000018 	b	822c4 <CEcoUART1Factory_025F3EF0_Alloc+0x114>
   82268:	f9401fa0 	ldr	x0, [x29, #56]
   8226c:	f9400000 	ldr	x0, [x0]
   82270:	f9401003 	ldr	x3, [x0, #32]
   82274:	f94027a0 	ldr	x0, [x29, #72]
   82278:	aa0003e2 	mov	x2, x0
   8227c:	f9401ba1 	ldr	x1, [x29, #48]
   82280:	f9401fa0 	ldr	x0, [x29, #56]
   82284:	d63f0060 	blr	x3
   82288:	7900afa0 	strh	w0, [x29, #86]
   8228c:	f94027a0 	ldr	x0, [x29, #72]
   82290:	f9400000 	ldr	x0, [x0]
   82294:	f9400003 	ldr	x3, [x0]
   82298:	f94027a0 	ldr	x0, [x29, #72]
   8229c:	f9400fa2 	ldr	x2, [x29, #24]
   822a0:	f94013a1 	ldr	x1, [x29, #32]
   822a4:	d63f0060 	blr	x3
   822a8:	7900afa0 	strh	w0, [x29, #86]
   822ac:	f94027a0 	ldr	x0, [x29, #72]
   822b0:	f9400000 	ldr	x0, [x0]
   822b4:	f9400801 	ldr	x1, [x0, #16]
   822b8:	f94027a0 	ldr	x0, [x29, #72]
   822bc:	d63f0020 	blr	x1
   822c0:	79c0afa0 	ldrsh	w0, [x29, #86]
   822c4:	a8c67bfd 	ldp	x29, x30, [sp], #96
   822c8:	d65f03c0 	ret

00000000000822cc <CEcoUART1Factory_025F3EF0_get_Name>:
   822cc:	d10083ff 	sub	sp, sp, #0x20
   822d0:	f90007e0 	str	x0, [sp, #8]
   822d4:	f94007e0 	ldr	x0, [sp, #8]
   822d8:	f9000fe0 	str	x0, [sp, #24]
   822dc:	f94007e0 	ldr	x0, [sp, #8]
   822e0:	f100001f 	cmp	x0, #0x0
   822e4:	54000061 	b.ne	822f0 <CEcoUART1Factory_025F3EF0_get_Name+0x24>  // b.any
   822e8:	d2800000 	mov	x0, #0x0                   	// #0
   822ec:	14000003 	b	822f8 <CEcoUART1Factory_025F3EF0_get_Name+0x2c>
   822f0:	f9400fe0 	ldr	x0, [sp, #24]
   822f4:	91008000 	add	x0, x0, #0x20
   822f8:	910083ff 	add	sp, sp, #0x20
   822fc:	d65f03c0 	ret

0000000000082300 <CEcoUART1Factory_025F3EF0_get_Version>:
   82300:	d10083ff 	sub	sp, sp, #0x20
   82304:	f90007e0 	str	x0, [sp, #8]
   82308:	f94007e0 	ldr	x0, [sp, #8]
   8230c:	f9000fe0 	str	x0, [sp, #24]
   82310:	f94007e0 	ldr	x0, [sp, #8]
   82314:	f100001f 	cmp	x0, #0x0
   82318:	54000061 	b.ne	82324 <CEcoUART1Factory_025F3EF0_get_Version+0x24>  // b.any
   8231c:	d2800000 	mov	x0, #0x0                   	// #0
   82320:	14000003 	b	8232c <CEcoUART1Factory_025F3EF0_get_Version+0x2c>
   82324:	f9400fe0 	ldr	x0, [sp, #24]
   82328:	91018000 	add	x0, x0, #0x60
   8232c:	910083ff 	add	sp, sp, #0x20
   82330:	d65f03c0 	ret

0000000000082334 <CEcoUART1Factory_025F3EF0_get_Manufacturer>:
   82334:	d10083ff 	sub	sp, sp, #0x20
   82338:	f90007e0 	str	x0, [sp, #8]
   8233c:	f94007e0 	ldr	x0, [sp, #8]
   82340:	f9000fe0 	str	x0, [sp, #24]
   82344:	f94007e0 	ldr	x0, [sp, #8]
   82348:	f100001f 	cmp	x0, #0x0
   8234c:	54000061 	b.ne	82358 <CEcoUART1Factory_025F3EF0_get_Manufacturer+0x24>  // b.any
   82350:	d2800000 	mov	x0, #0x0                   	// #0
   82354:	14000003 	b	82360 <CEcoUART1Factory_025F3EF0_get_Manufacturer+0x2c>
   82358:	f9400fe0 	ldr	x0, [sp, #24]
   8235c:	9101c000 	add	x0, x0, #0x70
   82360:	910083ff 	add	sp, sp, #0x20
   82364:	d65f03c0 	ret

0000000000082368 <CEcoUART1_025F3EF0_QueryInterface>:
   82368:	a9bc7bfd 	stp	x29, x30, [sp, #-64]!
   8236c:	910003fd 	mov	x29, sp
   82370:	f90017a0 	str	x0, [x29, #40]
   82374:	f90013a1 	str	x1, [x29, #32]
   82378:	f9000fa2 	str	x2, [x29, #24]
   8237c:	f94017a0 	ldr	x0, [x29, #40]
   82380:	f9001fa0 	str	x0, [x29, #56]
   82384:	12800000 	mov	w0, #0xffffffff            	// #-1
   82388:	79006fa0 	strh	w0, [x29, #54]
   8238c:	f94017a0 	ldr	x0, [x29, #40]
   82390:	f100001f 	cmp	x0, #0x0
   82394:	54000080 	b.eq	823a4 <CEcoUART1_025F3EF0_QueryInterface+0x3c>  // b.none
   82398:	f9400fa0 	ldr	x0, [x29, #24]
   8239c:	f100001f 	cmp	x0, #0x0
   823a0:	54000061 	b.ne	823ac <CEcoUART1_025F3EF0_QueryInterface+0x44>  // b.any
   823a4:	79c06fa0 	ldrsh	w0, [x29, #54]
   823a8:	14000028 	b	82448 <CEcoUART1_025F3EF0_QueryInterface+0xe0>
   823ac:	90000020 	adrp	x0, 86000 <g_xCEcoFactoryList1_42757331+0x100>
   823b0:	9107c000 	add	x0, x0, #0x1f0
   823b4:	aa0003e1 	mov	x1, x0
   823b8:	f94013a0 	ldr	x0, [x29, #32]
   823bc:	97fffef5 	bl	81f90 <IsEqualUGUIDB40E129B56624BD7B5F8339C025F3EF0>
   823c0:	12001c00 	and	w0, w0, #0xff
   823c4:	7100001f 	cmp	w0, #0x0
   823c8:	54000140 	b.eq	823f0 <CEcoUART1_025F3EF0_QueryInterface+0x88>  // b.none
   823cc:	f9401fa1 	ldr	x1, [x29, #56]
   823d0:	f9400fa0 	ldr	x0, [x29, #24]
   823d4:	f9000001 	str	x1, [x0]
   823d8:	f9401fa0 	ldr	x0, [x29, #56]
   823dc:	f9400000 	ldr	x0, [x0]
   823e0:	f9400401 	ldr	x1, [x0, #8]
   823e4:	f9401fa0 	ldr	x0, [x29, #56]
   823e8:	d63f0020 	blr	x1
   823ec:	14000016 	b	82444 <CEcoUART1_025F3EF0_QueryInterface+0xdc>
   823f0:	90000020 	adrp	x0, 86000 <g_xCEcoFactoryList1_42757331+0x100>
   823f4:	9105e000 	add	x0, x0, #0x178
   823f8:	aa0003e1 	mov	x1, x0
   823fc:	f94013a0 	ldr	x0, [x29, #32]
   82400:	97fffee4 	bl	81f90 <IsEqualUGUIDB40E129B56624BD7B5F8339C025F3EF0>
   82404:	12001c00 	and	w0, w0, #0xff
   82408:	7100001f 	cmp	w0, #0x0
   8240c:	54000140 	b.eq	82434 <CEcoUART1_025F3EF0_QueryInterface+0xcc>  // b.none
   82410:	f9401fa1 	ldr	x1, [x29, #56]
   82414:	f9400fa0 	ldr	x0, [x29, #24]
   82418:	f9000001 	str	x1, [x0]
   8241c:	f9401fa0 	ldr	x0, [x29, #56]
   82420:	f9400000 	ldr	x0, [x0]
   82424:	f9400401 	ldr	x1, [x0, #8]
   82428:	f9401fa0 	ldr	x0, [x29, #56]
   8242c:	d63f0020 	blr	x1
   82430:	14000005 	b	82444 <CEcoUART1_025F3EF0_QueryInterface+0xdc>
   82434:	f9400fa0 	ldr	x0, [x29, #24]
   82438:	f900001f 	str	xzr, [x0]
   8243c:	12800000 	mov	w0, #0xffffffff            	// #-1
   82440:	14000002 	b	82448 <CEcoUART1_025F3EF0_QueryInterface+0xe0>
   82444:	52800000 	mov	w0, #0x0                   	// #0
   82448:	a8c47bfd 	ldp	x29, x30, [sp], #64
   8244c:	d65f03c0 	ret

0000000000082450 <CEcoUART1_025F3EF0_AddRef>:
   82450:	d10083ff 	sub	sp, sp, #0x20
   82454:	f90007e0 	str	x0, [sp, #8]
   82458:	f94007e0 	ldr	x0, [sp, #8]
   8245c:	f9000fe0 	str	x0, [sp, #24]
   82460:	f94007e0 	ldr	x0, [sp, #8]
   82464:	f100001f 	cmp	x0, #0x0
   82468:	54000061 	b.ne	82474 <CEcoUART1_025F3EF0_AddRef+0x24>  // b.any
   8246c:	12800000 	mov	w0, #0xffffffff            	// #-1
   82470:	14000008 	b	82490 <CEcoUART1_025F3EF0_AddRef+0x40>
   82474:	f9400fe0 	ldr	x0, [sp, #24]
   82478:	b9400800 	ldr	w0, [x0, #8]
   8247c:	11000401 	add	w1, w0, #0x1
   82480:	f9400fe0 	ldr	x0, [sp, #24]
   82484:	b9000801 	str	w1, [x0, #8]
   82488:	f9400fe0 	ldr	x0, [sp, #24]
   8248c:	b9400800 	ldr	w0, [x0, #8]
   82490:	910083ff 	add	sp, sp, #0x20
   82494:	d65f03c0 	ret

0000000000082498 <CEcoUART1_025F3EF0_Release>:
   82498:	a9bd7bfd 	stp	x29, x30, [sp, #-48]!
   8249c:	910003fd 	mov	x29, sp
   824a0:	f9000fa0 	str	x0, [x29, #24]
   824a4:	f9400fa0 	ldr	x0, [x29, #24]
   824a8:	f90017a0 	str	x0, [x29, #40]
   824ac:	f9400fa0 	ldr	x0, [x29, #24]
   824b0:	f100001f 	cmp	x0, #0x0
   824b4:	54000061 	b.ne	824c0 <CEcoUART1_025F3EF0_Release+0x28>  // b.any
   824b8:	12800000 	mov	w0, #0xffffffff            	// #-1
   824bc:	14000010 	b	824fc <CEcoUART1_025F3EF0_Release+0x64>
   824c0:	f94017a0 	ldr	x0, [x29, #40]
   824c4:	b9400800 	ldr	w0, [x0, #8]
   824c8:	51000401 	sub	w1, w0, #0x1
   824cc:	f94017a0 	ldr	x0, [x29, #40]
   824d0:	b9000801 	str	w1, [x0, #8]
   824d4:	f94017a0 	ldr	x0, [x29, #40]
   824d8:	b9400800 	ldr	w0, [x0, #8]
   824dc:	7100001f 	cmp	w0, #0x0
   824e0:	540000a1 	b.ne	824f4 <CEcoUART1_025F3EF0_Release+0x5c>  // b.any
   824e4:	f94017a0 	ldr	x0, [x29, #40]
   824e8:	9400004a 	bl	82610 <deleteCEcoUART1_025F3EF0>
   824ec:	52800000 	mov	w0, #0x0                   	// #0
   824f0:	14000003 	b	824fc <CEcoUART1_025F3EF0_Release+0x64>
   824f4:	f94017a0 	ldr	x0, [x29, #40]
   824f8:	b9400800 	ldr	w0, [x0, #8]
   824fc:	a8c37bfd 	ldp	x29, x30, [sp], #48
   82500:	d65f03c0 	ret

0000000000082504 <CEcoUART1_025F3EF0_new_Device>:
   82504:	a9bd7bfd 	stp	x29, x30, [sp, #-48]!
   82508:	910003fd 	mov	x29, sp
   8250c:	f9000fa0 	str	x0, [x29, #24]
   82510:	f9000ba1 	str	x1, [x29, #16]
   82514:	f9400fa0 	ldr	x0, [x29, #24]
   82518:	f90017a0 	str	x0, [x29, #40]
   8251c:	f9400fa0 	ldr	x0, [x29, #24]
   82520:	f100001f 	cmp	x0, #0x0
   82524:	54000061 	b.ne	82530 <CEcoUART1_025F3EF0_new_Device+0x2c>  // b.any
   82528:	12800000 	mov	w0, #0xffffffff            	// #-1
   8252c:	14000007 	b	82548 <CEcoUART1_025F3EF0_new_Device+0x44>
   82530:	f94017a0 	ldr	x0, [x29, #40]
   82534:	f9400c00 	ldr	x0, [x0, #24]
   82538:	f9400ba2 	ldr	x2, [x29, #16]
   8253c:	d2800001 	mov	x1, #0x0                   	// #0
   82540:	9400032f 	bl	831fc <createCEcoUART1Device_025F3EF0>
   82544:	13003c00 	sxth	w0, w0
   82548:	a8c37bfd 	ldp	x29, x30, [sp], #48
   8254c:	d65f03c0 	ret

0000000000082550 <initCEcoUART1_025F3EF0>:
   82550:	d10083ff 	sub	sp, sp, #0x20
   82554:	f90007e0 	str	x0, [sp, #8]
   82558:	f90003e1 	str	x1, [sp]
   8255c:	f94007e0 	ldr	x0, [sp, #8]
   82560:	f9000fe0 	str	x0, [sp, #24]
   82564:	12800000 	mov	w0, #0xffffffff            	// #-1
   82568:	79002fe0 	strh	w0, [sp, #22]
   8256c:	f94007e0 	ldr	x0, [sp, #8]
   82570:	f100001f 	cmp	x0, #0x0
   82574:	54000061 	b.ne	82580 <initCEcoUART1_025F3EF0+0x30>  // b.any
   82578:	79c02fe0 	ldrsh	w0, [sp, #22]
   8257c:	14000005 	b	82590 <initCEcoUART1_025F3EF0+0x40>
   82580:	f9400fe0 	ldr	x0, [sp, #24]
   82584:	f94003e1 	ldr	x1, [sp]
   82588:	f9000c01 	str	x1, [x0, #24]
   8258c:	52800000 	mov	w0, #0x0                   	// #0
   82590:	910083ff 	add	sp, sp, #0x20
   82594:	d65f03c0 	ret

0000000000082598 <createCEcoUART1_025F3EF0>:
   82598:	d10143ff 	sub	sp, sp, #0x50
   8259c:	f9000fe0 	str	x0, [sp, #24]
   825a0:	f9000be1 	str	x1, [sp, #16]
   825a4:	f90007e2 	str	x2, [sp, #8]
   825a8:	12800000 	mov	w0, #0xffffffff            	// #-1
   825ac:	79009fe0 	strh	w0, [sp, #78]
   825b0:	f90023ff 	str	xzr, [sp, #64]
   825b4:	f9001fff 	str	xzr, [sp, #56]
   825b8:	f9001bff 	str	xzr, [sp, #48]
   825bc:	f90017ff 	str	xzr, [sp, #40]
   825c0:	f94007e0 	ldr	x0, [sp, #8]
   825c4:	f100001f 	cmp	x0, #0x0
   825c8:	54000080 	b.eq	825d8 <createCEcoUART1_025F3EF0+0x40>  // b.none
   825cc:	f9400fe0 	ldr	x0, [sp, #24]
   825d0:	f100001f 	cmp	x0, #0x0
   825d4:	54000061 	b.ne	825e0 <createCEcoUART1_025F3EF0+0x48>  // b.any
   825d8:	79c09fe0 	ldrsh	w0, [sp, #78]
   825dc:	1400000b 	b	82608 <createCEcoUART1_025F3EF0+0x70>
   825e0:	f0000000 	adrp	x0, 85000 <CEcoIPCCMailbox1_QueryInterface+0x180>
   825e4:	91296000 	add	x0, x0, #0xa58
   825e8:	f90017e0 	str	x0, [sp, #40]
   825ec:	f94017e0 	ldr	x0, [sp, #40]
   825f0:	52800021 	mov	w1, #0x1                   	// #1
   825f4:	b9000801 	str	w1, [x0, #8]
   825f8:	f94007e0 	ldr	x0, [sp, #8]
   825fc:	f94017e1 	ldr	x1, [sp, #40]
   82600:	f9000001 	str	x1, [x0]
   82604:	52800000 	mov	w0, #0x0                   	// #0
   82608:	910143ff 	add	sp, sp, #0x50
   8260c:	d65f03c0 	ret

0000000000082610 <deleteCEcoUART1_025F3EF0>:
   82610:	d10083ff 	sub	sp, sp, #0x20
   82614:	f90007e0 	str	x0, [sp, #8]
   82618:	f94007e0 	ldr	x0, [sp, #8]
   8261c:	f9000fe0 	str	x0, [sp, #24]
   82620:	f9000bff 	str	xzr, [sp, #16]
   82624:	f94007e0 	ldr	x0, [sp, #8]
   82628:	f100001f 	cmp	x0, #0x0
   8262c:	54000080 	b.eq	8263c <deleteCEcoUART1_025F3EF0+0x2c>  // b.none
   82630:	f9400fe0 	ldr	x0, [sp, #24]
   82634:	f9400800 	ldr	x0, [x0, #16]
   82638:	f9000be0 	str	x0, [sp, #16]
   8263c:	d503201f 	nop
   82640:	910083ff 	add	sp, sp, #0x20
   82644:	d65f03c0 	ret

0000000000082648 <CEcoUART1Device_025F3EF0_QueryInterface>:
   82648:	a9bc7bfd 	stp	x29, x30, [sp, #-64]!
   8264c:	910003fd 	mov	x29, sp
   82650:	f90017a0 	str	x0, [x29, #40]
   82654:	f90013a1 	str	x1, [x29, #32]
   82658:	f9000fa2 	str	x2, [x29, #24]
   8265c:	f94017a0 	ldr	x0, [x29, #40]
   82660:	f9001fa0 	str	x0, [x29, #56]
   82664:	12800000 	mov	w0, #0xffffffff            	// #-1
   82668:	79006fa0 	strh	w0, [x29, #54]
   8266c:	f94017a0 	ldr	x0, [x29, #40]
   82670:	f100001f 	cmp	x0, #0x0
   82674:	54000080 	b.eq	82684 <CEcoUART1Device_025F3EF0_QueryInterface+0x3c>  // b.none
   82678:	f9400fa0 	ldr	x0, [x29, #24]
   8267c:	f100001f 	cmp	x0, #0x0
   82680:	54000061 	b.ne	8268c <CEcoUART1Device_025F3EF0_QueryInterface+0x44>  // b.any
   82684:	79c06fa0 	ldrsh	w0, [x29, #54]
   82688:	1400004c 	b	827b8 <CEcoUART1Device_025F3EF0_QueryInterface+0x170>
   8268c:	90000020 	adrp	x0, 86000 <g_xCEcoFactoryList1_42757331+0x100>
   82690:	910b8000 	add	x0, x0, #0x2e0
   82694:	aa0003e1 	mov	x1, x0
   82698:	f94013a0 	ldr	x0, [x29, #32]
   8269c:	97fffe3d 	bl	81f90 <IsEqualUGUIDB40E129B56624BD7B5F8339C025F3EF0>
   826a0:	12001c00 	and	w0, w0, #0xff
   826a4:	7100001f 	cmp	w0, #0x0
   826a8:	54000140 	b.eq	826d0 <CEcoUART1Device_025F3EF0_QueryInterface+0x88>  // b.none
   826ac:	f9401fa1 	ldr	x1, [x29, #56]
   826b0:	f9400fa0 	ldr	x0, [x29, #24]
   826b4:	f9000001 	str	x1, [x0]
   826b8:	f9401fa0 	ldr	x0, [x29, #56]
   826bc:	f9400000 	ldr	x0, [x0]
   826c0:	f9400401 	ldr	x1, [x0, #8]
   826c4:	f9401fa0 	ldr	x0, [x29, #56]
   826c8:	d63f0020 	blr	x1
   826cc:	1400003a 	b	827b4 <CEcoUART1Device_025F3EF0_QueryInterface+0x16c>
   826d0:	90000020 	adrp	x0, 86000 <g_xCEcoFactoryList1_42757331+0x100>
   826d4:	910a0000 	add	x0, x0, #0x280
   826d8:	aa0003e1 	mov	x1, x0
   826dc:	f94013a0 	ldr	x0, [x29, #32]
   826e0:	97fffe2c 	bl	81f90 <IsEqualUGUIDB40E129B56624BD7B5F8339C025F3EF0>
   826e4:	12001c00 	and	w0, w0, #0xff
   826e8:	7100001f 	cmp	w0, #0x0
   826ec:	54000140 	b.eq	82714 <CEcoUART1Device_025F3EF0_QueryInterface+0xcc>  // b.none
   826f0:	f9401fa1 	ldr	x1, [x29, #56]
   826f4:	f9400fa0 	ldr	x0, [x29, #24]
   826f8:	f9000001 	str	x1, [x0]
   826fc:	f9401fa0 	ldr	x0, [x29, #56]
   82700:	f9400000 	ldr	x0, [x0]
   82704:	f9400401 	ldr	x1, [x0, #8]
   82708:	f9401fa0 	ldr	x0, [x29, #56]
   8270c:	d63f0020 	blr	x1
   82710:	14000029 	b	827b4 <CEcoUART1Device_025F3EF0_QueryInterface+0x16c>
   82714:	90000020 	adrp	x0, 86000 <g_xCEcoFactoryList1_42757331+0x100>
   82718:	910d6000 	add	x0, x0, #0x358
   8271c:	aa0003e1 	mov	x1, x0
   82720:	f94013a0 	ldr	x0, [x29, #32]
   82724:	97fffe1b 	bl	81f90 <IsEqualUGUIDB40E129B56624BD7B5F8339C025F3EF0>
   82728:	12001c00 	and	w0, w0, #0xff
   8272c:	7100001f 	cmp	w0, #0x0
   82730:	54000160 	b.eq	8275c <CEcoUART1Device_025F3EF0_QueryInterface+0x114>  // b.none
   82734:	f9401fa0 	ldr	x0, [x29, #56]
   82738:	91002001 	add	x1, x0, #0x8
   8273c:	f9400fa0 	ldr	x0, [x29, #24]
   82740:	f9000001 	str	x1, [x0]
   82744:	f9401fa0 	ldr	x0, [x29, #56]
   82748:	f9400000 	ldr	x0, [x0]
   8274c:	f9400401 	ldr	x1, [x0, #8]
   82750:	f9401fa0 	ldr	x0, [x29, #56]
   82754:	d63f0020 	blr	x1
   82758:	14000017 	b	827b4 <CEcoUART1Device_025F3EF0_QueryInterface+0x16c>
   8275c:	90000020 	adrp	x0, 86000 <g_xCEcoFactoryList1_42757331+0x100>
   82760:	910dc000 	add	x0, x0, #0x370
   82764:	aa0003e1 	mov	x1, x0
   82768:	f94013a0 	ldr	x0, [x29, #32]
   8276c:	97fffe09 	bl	81f90 <IsEqualUGUIDB40E129B56624BD7B5F8339C025F3EF0>
   82770:	12001c00 	and	w0, w0, #0xff
   82774:	7100001f 	cmp	w0, #0x0
   82778:	54000160 	b.eq	827a4 <CEcoUART1Device_025F3EF0_QueryInterface+0x15c>  // b.none
   8277c:	f9401fa0 	ldr	x0, [x29, #56]
   82780:	91004001 	add	x1, x0, #0x10
   82784:	f9400fa0 	ldr	x0, [x29, #24]
   82788:	f9000001 	str	x1, [x0]
   8278c:	f9401fa0 	ldr	x0, [x29, #56]
   82790:	f9400000 	ldr	x0, [x0]
   82794:	f9400401 	ldr	x1, [x0, #8]
   82798:	f9401fa0 	ldr	x0, [x29, #56]
   8279c:	d63f0020 	blr	x1
   827a0:	14000005 	b	827b4 <CEcoUART1Device_025F3EF0_QueryInterface+0x16c>
   827a4:	f9400fa0 	ldr	x0, [x29, #24]
   827a8:	f900001f 	str	xzr, [x0]
   827ac:	12800000 	mov	w0, #0xffffffff            	// #-1
   827b0:	14000002 	b	827b8 <CEcoUART1Device_025F3EF0_QueryInterface+0x170>
   827b4:	52800000 	mov	w0, #0x0                   	// #0
   827b8:	a8c47bfd 	ldp	x29, x30, [sp], #64
   827bc:	d65f03c0 	ret

00000000000827c0 <CEcoUART1Device_025F3EF0_AddRef>:
   827c0:	d10083ff 	sub	sp, sp, #0x20
   827c4:	f90007e0 	str	x0, [sp, #8]
   827c8:	f94007e0 	ldr	x0, [sp, #8]
   827cc:	f9000fe0 	str	x0, [sp, #24]
   827d0:	f94007e0 	ldr	x0, [sp, #8]
   827d4:	f100001f 	cmp	x0, #0x0
   827d8:	54000061 	b.ne	827e4 <CEcoUART1Device_025F3EF0_AddRef+0x24>  // b.any
   827dc:	12800000 	mov	w0, #0xffffffff            	// #-1
   827e0:	14000008 	b	82800 <CEcoUART1Device_025F3EF0_AddRef+0x40>
   827e4:	f9400fe0 	ldr	x0, [sp, #24]
   827e8:	b9401800 	ldr	w0, [x0, #24]
   827ec:	11000401 	add	w1, w0, #0x1
   827f0:	f9400fe0 	ldr	x0, [sp, #24]
   827f4:	b9001801 	str	w1, [x0, #24]
   827f8:	f9400fe0 	ldr	x0, [sp, #24]
   827fc:	b9401800 	ldr	w0, [x0, #24]
   82800:	910083ff 	add	sp, sp, #0x20
   82804:	d65f03c0 	ret

0000000000082808 <CEcoUART1Device_025F3EF0_Release>:
   82808:	a9bd7bfd 	stp	x29, x30, [sp, #-48]!
   8280c:	910003fd 	mov	x29, sp
   82810:	f9000fa0 	str	x0, [x29, #24]
   82814:	f9400fa0 	ldr	x0, [x29, #24]
   82818:	f90017a0 	str	x0, [x29, #40]
   8281c:	f9400fa0 	ldr	x0, [x29, #24]
   82820:	f100001f 	cmp	x0, #0x0
   82824:	54000061 	b.ne	82830 <CEcoUART1Device_025F3EF0_Release+0x28>  // b.any
   82828:	12800000 	mov	w0, #0xffffffff            	// #-1
   8282c:	14000010 	b	8286c <CEcoUART1Device_025F3EF0_Release+0x64>
   82830:	f94017a0 	ldr	x0, [x29, #40]
   82834:	b9401800 	ldr	w0, [x0, #24]
   82838:	51000401 	sub	w1, w0, #0x1
   8283c:	f94017a0 	ldr	x0, [x29, #40]
   82840:	b9001801 	str	w1, [x0, #24]
   82844:	f94017a0 	ldr	x0, [x29, #40]
   82848:	b9401800 	ldr	w0, [x0, #24]
   8284c:	7100001f 	cmp	w0, #0x0
   82850:	540000a1 	b.ne	82864 <CEcoUART1Device_025F3EF0_Release+0x5c>  // b.any
   82854:	f94017a0 	ldr	x0, [x29, #40]
   82858:	940002a8 	bl	832f8 <deleteCEcoUART1Device_025F3EF0>
   8285c:	52800000 	mov	w0, #0x0                   	// #0
   82860:	14000003 	b	8286c <CEcoUART1Device_025F3EF0_Release+0x64>
   82864:	f94017a0 	ldr	x0, [x29, #40]
   82868:	b9401800 	ldr	w0, [x0, #24]
   8286c:	a8c37bfd 	ldp	x29, x30, [sp], #48
   82870:	d65f03c0 	ret

0000000000082874 <CEcoUART1Device_025F3EF0_Connect>:
   82874:	f81d0ff3 	str	x19, [sp, #-48]!
   82878:	f9000fe0 	str	x0, [sp, #24]
   8287c:	f9000be1 	str	x1, [sp, #16]
   82880:	f9400fe0 	ldr	x0, [sp, #24]
   82884:	f90017e0 	str	x0, [sp, #40]
   82888:	b90027ff 	str	wzr, [sp, #36]
   8288c:	f9400fe0 	ldr	x0, [sp, #24]
   82890:	f100001f 	cmp	x0, #0x0
   82894:	54000061 	b.ne	828a0 <CEcoUART1Device_025F3EF0_Connect+0x2c>  // b.any
   82898:	12800000 	mov	w0, #0xffffffff            	// #-1
   8289c:	14000067 	b	82a38 <CEcoUART1Device_025F3EF0_Connect+0x1c4>
   828a0:	f94017e0 	ldr	x0, [sp, #40]
   828a4:	f9401800 	ldr	x0, [x0, #48]
   828a8:	f9400000 	ldr	x0, [x0]
   828ac:	9100c000 	add	x0, x0, #0x30
   828b0:	b900001f 	str	wzr, [x0]
   828b4:	f94017e0 	ldr	x0, [sp, #40]
   828b8:	f9401c00 	ldr	x0, [x0, #56]
   828bc:	f9400000 	ldr	x0, [x0]
   828c0:	b9400413 	ldr	w19, [x0, #4]
   828c4:	120e6673 	and	w19, w19, #0xfffc0fff
   828c8:	52880000 	mov	w0, #0x4000                	// #16384
   828cc:	72a00040 	movk	w0, #0x2, lsl #16
   828d0:	2a000273 	orr	w19, w19, w0
   828d4:	f94017e0 	ldr	x0, [sp, #40]
   828d8:	f9401c00 	ldr	x0, [x0, #56]
   828dc:	f9400000 	ldr	x0, [x0]
   828e0:	91001000 	add	x0, x0, #0x4
   828e4:	b9000013 	str	w19, [x0]
   828e8:	f94017e0 	ldr	x0, [sp, #40]
   828ec:	f9401c00 	ldr	x0, [x0, #56]
   828f0:	f9400000 	ldr	x0, [x0]
   828f4:	91025000 	add	x0, x0, #0x94
   828f8:	b900001f 	str	wzr, [x0]
   828fc:	528012d3 	mov	w19, #0x96                  	// #150
   82900:	14000002 	b	82908 <CEcoUART1Device_025F3EF0_Connect+0x94>
   82904:	d503201f 	nop
   82908:	2a1303e0 	mov	w0, w19
   8290c:	51000413 	sub	w19, w0, #0x1
   82910:	7100001f 	cmp	w0, #0x0
   82914:	54ffff81 	b.ne	82904 <CEcoUART1Device_025F3EF0_Connect+0x90>  // b.any
   82918:	f94017e0 	ldr	x0, [sp, #40]
   8291c:	f9401c00 	ldr	x0, [x0, #56]
   82920:	f9400000 	ldr	x0, [x0]
   82924:	91026000 	add	x0, x0, #0x98
   82928:	52980001 	mov	w1, #0xc000                	// #49152
   8292c:	b9000001 	str	w1, [x0]
   82930:	528012d3 	mov	w19, #0x96                  	// #150
   82934:	14000002 	b	8293c <CEcoUART1Device_025F3EF0_Connect+0xc8>
   82938:	d503201f 	nop
   8293c:	2a1303e0 	mov	w0, w19
   82940:	51000413 	sub	w19, w0, #0x1
   82944:	7100001f 	cmp	w0, #0x0
   82948:	54ffff81 	b.ne	82938 <CEcoUART1Device_025F3EF0_Connect+0xc4>  // b.any
   8294c:	f94017e0 	ldr	x0, [sp, #40]
   82950:	f9401c00 	ldr	x0, [x0, #56]
   82954:	f9400000 	ldr	x0, [x0]
   82958:	91026000 	add	x0, x0, #0x98
   8295c:	b900001f 	str	wzr, [x0]
   82960:	f94017e0 	ldr	x0, [sp, #40]
   82964:	f9401800 	ldr	x0, [x0, #48]
   82968:	f9400000 	ldr	x0, [x0]
   8296c:	91011000 	add	x0, x0, #0x44
   82970:	5280ffe1 	mov	w1, #0x7ff                 	// #2047
   82974:	b9000001 	str	w1, [x0]
   82978:	f94017e0 	ldr	x0, [sp, #40]
   8297c:	f9401800 	ldr	x0, [x0, #48]
   82980:	f9400000 	ldr	x0, [x0]
   82984:	91009000 	add	x0, x0, #0x24
   82988:	52800041 	mov	w1, #0x2                   	// #2
   8298c:	b9000001 	str	w1, [x0]
   82990:	f94017e0 	ldr	x0, [sp, #40]
   82994:	f9401800 	ldr	x0, [x0, #48]
   82998:	f9400000 	ldr	x0, [x0]
   8299c:	9100a000 	add	x0, x0, #0x28
   829a0:	52800161 	mov	w1, #0xb                   	// #11
   829a4:	b9000001 	str	w1, [x0]
   829a8:	f94017e0 	ldr	x0, [sp, #40]
   829ac:	f9401800 	ldr	x0, [x0, #48]
   829b0:	f9400000 	ldr	x0, [x0]
   829b4:	9100b000 	add	x0, x0, #0x2c
   829b8:	b9400001 	ldr	w1, [x0]
   829bc:	f94017e0 	ldr	x0, [sp, #40]
   829c0:	f9401800 	ldr	x0, [x0, #48]
   829c4:	f9400000 	ldr	x0, [x0]
   829c8:	9100b000 	add	x0, x0, #0x2c
   829cc:	121b7821 	and	w1, w1, #0xffffffef
   829d0:	b9000001 	str	w1, [x0]
   829d4:	f94017e0 	ldr	x0, [sp, #40]
   829d8:	f9401800 	ldr	x0, [x0, #48]
   829dc:	f9400000 	ldr	x0, [x0]
   829e0:	9100b000 	add	x0, x0, #0x2c
   829e4:	52800e01 	mov	w1, #0x70                  	// #112
   829e8:	b9000001 	str	w1, [x0]
   829ec:	f94017e0 	ldr	x0, [sp, #40]
   829f0:	f9401800 	ldr	x0, [x0, #48]
   829f4:	f9400000 	ldr	x0, [x0]
   829f8:	9100d000 	add	x0, x0, #0x34
   829fc:	52800241 	mov	w1, #0x12                  	// #18
   82a00:	b9000001 	str	w1, [x0]
   82a04:	f94017e0 	ldr	x0, [sp, #40]
   82a08:	f9401800 	ldr	x0, [x0, #48]
   82a0c:	f9400000 	ldr	x0, [x0]
   82a10:	9100d000 	add	x0, x0, #0x34
   82a14:	5280fe41 	mov	w1, #0x7f2                 	// #2034
   82a18:	b9000001 	str	w1, [x0]
   82a1c:	f94017e0 	ldr	x0, [sp, #40]
   82a20:	f9401800 	ldr	x0, [x0, #48]
   82a24:	f9400000 	ldr	x0, [x0]
   82a28:	9100c000 	add	x0, x0, #0x30
   82a2c:	52806021 	mov	w1, #0x301                 	// #769
   82a30:	b9000001 	str	w1, [x0]
   82a34:	52800000 	mov	w0, #0x0                   	// #0
   82a38:	f84307f3 	ldr	x19, [sp], #48
   82a3c:	d65f03c0 	ret

0000000000082a40 <CEcoUART1Device_025F3EF0_Disconnect>:
   82a40:	d10083ff 	sub	sp, sp, #0x20
   82a44:	f90007e0 	str	x0, [sp, #8]
   82a48:	f94007e0 	ldr	x0, [sp, #8]
   82a4c:	f9000fe0 	str	x0, [sp, #24]
   82a50:	f94007e0 	ldr	x0, [sp, #8]
   82a54:	f100001f 	cmp	x0, #0x0
   82a58:	54000061 	b.ne	82a64 <CEcoUART1Device_025F3EF0_Disconnect+0x24>  // b.any
   82a5c:	12800000 	mov	w0, #0xffffffff            	// #-1
   82a60:	14000002 	b	82a68 <CEcoUART1Device_025F3EF0_Disconnect+0x28>
   82a64:	52800000 	mov	w0, #0x0                   	// #0
   82a68:	910083ff 	add	sp, sp, #0x20
   82a6c:	d65f03c0 	ret

0000000000082a70 <CEcoUART1Device_025F3EF0_Transmit>:
   82a70:	d100c3ff 	sub	sp, sp, #0x30
   82a74:	f90007e0 	str	x0, [sp, #8]
   82a78:	39001fe1 	strb	w1, [sp, #7]
   82a7c:	f94007e0 	ldr	x0, [sp, #8]
   82a80:	f90017e0 	str	x0, [sp, #40]
   82a84:	90000020 	adrp	x0, 86000 <g_xCEcoFactoryList1_42757331+0x100>
   82a88:	910e2000 	add	x0, x0, #0x388
   82a8c:	79400000 	ldrh	w0, [x0]
   82a90:	790043e0 	strh	w0, [sp, #32]
   82a94:	39007fff 	strb	wzr, [sp, #31]
   82a98:	39007bff 	strb	wzr, [sp, #30]
   82a9c:	f94007e0 	ldr	x0, [sp, #8]
   82aa0:	f100001f 	cmp	x0, #0x0
   82aa4:	54000061 	b.ne	82ab0 <CEcoUART1Device_025F3EF0_Transmit+0x40>  // b.any
   82aa8:	12800000 	mov	w0, #0xffffffff            	// #-1
   82aac:	14000011 	b	82af0 <CEcoUART1Device_025F3EF0_Transmit+0x80>
   82ab0:	d503201f 	nop
   82ab4:	f94017e0 	ldr	x0, [sp, #40]
   82ab8:	f9401800 	ldr	x0, [x0, #48]
   82abc:	f9400000 	ldr	x0, [x0]
   82ac0:	91006000 	add	x0, x0, #0x18
   82ac4:	b9400000 	ldr	w0, [x0]
   82ac8:	121b0000 	and	w0, w0, #0x20
   82acc:	7100001f 	cmp	w0, #0x0
   82ad0:	54ffff01 	b.ne	82ab0 <CEcoUART1Device_025F3EF0_Transmit+0x40>  // b.any
   82ad4:	f94017e0 	ldr	x0, [sp, #40]
   82ad8:	f9401800 	ldr	x0, [x0, #48]
   82adc:	f9400000 	ldr	x0, [x0]
   82ae0:	aa0003e1 	mov	x1, x0
   82ae4:	39401fe0 	ldrb	w0, [sp, #7]
   82ae8:	b9000020 	str	w0, [x1]
   82aec:	52800000 	mov	w0, #0x0                   	// #0
   82af0:	9100c3ff 	add	sp, sp, #0x30
   82af4:	d65f03c0 	ret

0000000000082af8 <CEcoUART1Device_025F3EF0_Receive>:
   82af8:	d10083ff 	sub	sp, sp, #0x20
   82afc:	f90007e0 	str	x0, [sp, #8]
   82b00:	f90003e1 	str	x1, [sp]
   82b04:	f94007e0 	ldr	x0, [sp, #8]
   82b08:	f9000fe0 	str	x0, [sp, #24]
   82b0c:	b90017ff 	str	wzr, [sp, #20]
   82b10:	f94007e0 	ldr	x0, [sp, #8]
   82b14:	f100001f 	cmp	x0, #0x0
   82b18:	54000061 	b.ne	82b24 <CEcoUART1Device_025F3EF0_Receive+0x2c>  // b.any
   82b1c:	12800000 	mov	w0, #0xffffffff            	// #-1
   82b20:	14000012 	b	82b68 <CEcoUART1Device_025F3EF0_Receive+0x70>
   82b24:	d503201f 	nop
   82b28:	f9400fe0 	ldr	x0, [sp, #24]
   82b2c:	f9401800 	ldr	x0, [x0, #48]
   82b30:	f9400000 	ldr	x0, [x0]
   82b34:	91006000 	add	x0, x0, #0x18
   82b38:	b9400000 	ldr	w0, [x0]
   82b3c:	121c0000 	and	w0, w0, #0x10
   82b40:	7100001f 	cmp	w0, #0x0
   82b44:	54ffff01 	b.ne	82b24 <CEcoUART1Device_025F3EF0_Receive+0x2c>  // b.any
   82b48:	f9400fe0 	ldr	x0, [sp, #24]
   82b4c:	f9401800 	ldr	x0, [x0, #48]
   82b50:	f9400000 	ldr	x0, [x0]
   82b54:	b9400000 	ldr	w0, [x0]
   82b58:	12001c01 	and	w1, w0, #0xff
   82b5c:	f94003e0 	ldr	x0, [sp]
   82b60:	39000001 	strb	w1, [x0]
   82b64:	52800000 	mov	w0, #0x0                   	// #0
   82b68:	910083ff 	add	sp, sp, #0x20
   82b6c:	d65f03c0 	ret

0000000000082b70 <CEcoUART1Device_025F3EF0_Config_QueryInterface>:
   82b70:	a9bc7bfd 	stp	x29, x30, [sp, #-64]!
   82b74:	910003fd 	mov	x29, sp
   82b78:	f90017a0 	str	x0, [x29, #40]
   82b7c:	f90013a1 	str	x1, [x29, #32]
   82b80:	f9000fa2 	str	x2, [x29, #24]
   82b84:	f94017a0 	ldr	x0, [x29, #40]
   82b88:	d1002000 	sub	x0, x0, #0x8
   82b8c:	f9001fa0 	str	x0, [x29, #56]
   82b90:	12800000 	mov	w0, #0xffffffff            	// #-1
   82b94:	79006fa0 	strh	w0, [x29, #54]
   82b98:	f94017a0 	ldr	x0, [x29, #40]
   82b9c:	f100001f 	cmp	x0, #0x0
   82ba0:	54000080 	b.eq	82bb0 <CEcoUART1Device_025F3EF0_Config_QueryInterface+0x40>  // b.none
   82ba4:	f9400fa0 	ldr	x0, [x29, #24]
   82ba8:	f100001f 	cmp	x0, #0x0
   82bac:	54000061 	b.ne	82bb8 <CEcoUART1Device_025F3EF0_Config_QueryInterface+0x48>  // b.any
   82bb0:	79c06fa0 	ldrsh	w0, [x29, #54]
   82bb4:	1400004c 	b	82ce4 <CEcoUART1Device_025F3EF0_Config_QueryInterface+0x174>
   82bb8:	90000020 	adrp	x0, 86000 <g_xCEcoFactoryList1_42757331+0x100>
   82bbc:	910b8000 	add	x0, x0, #0x2e0
   82bc0:	aa0003e1 	mov	x1, x0
   82bc4:	f94013a0 	ldr	x0, [x29, #32]
   82bc8:	97fffcf2 	bl	81f90 <IsEqualUGUIDB40E129B56624BD7B5F8339C025F3EF0>
   82bcc:	12001c00 	and	w0, w0, #0xff
   82bd0:	7100001f 	cmp	w0, #0x0
   82bd4:	54000140 	b.eq	82bfc <CEcoUART1Device_025F3EF0_Config_QueryInterface+0x8c>  // b.none
   82bd8:	f9401fa1 	ldr	x1, [x29, #56]
   82bdc:	f9400fa0 	ldr	x0, [x29, #24]
   82be0:	f9000001 	str	x1, [x0]
   82be4:	f9401fa0 	ldr	x0, [x29, #56]
   82be8:	f9400000 	ldr	x0, [x0]
   82bec:	f9400401 	ldr	x1, [x0, #8]
   82bf0:	f9401fa0 	ldr	x0, [x29, #56]
   82bf4:	d63f0020 	blr	x1
   82bf8:	1400003a 	b	82ce0 <CEcoUART1Device_025F3EF0_Config_QueryInterface+0x170>
   82bfc:	90000020 	adrp	x0, 86000 <g_xCEcoFactoryList1_42757331+0x100>
   82c00:	910a0000 	add	x0, x0, #0x280
   82c04:	aa0003e1 	mov	x1, x0
   82c08:	f94013a0 	ldr	x0, [x29, #32]
   82c0c:	97fffce1 	bl	81f90 <IsEqualUGUIDB40E129B56624BD7B5F8339C025F3EF0>
   82c10:	12001c00 	and	w0, w0, #0xff
   82c14:	7100001f 	cmp	w0, #0x0
   82c18:	54000140 	b.eq	82c40 <CEcoUART1Device_025F3EF0_Config_QueryInterface+0xd0>  // b.none
   82c1c:	f9401fa1 	ldr	x1, [x29, #56]
   82c20:	f9400fa0 	ldr	x0, [x29, #24]
   82c24:	f9000001 	str	x1, [x0]
   82c28:	f9401fa0 	ldr	x0, [x29, #56]
   82c2c:	f9400000 	ldr	x0, [x0]
   82c30:	f9400401 	ldr	x1, [x0, #8]
   82c34:	f9401fa0 	ldr	x0, [x29, #56]
   82c38:	d63f0020 	blr	x1
   82c3c:	14000029 	b	82ce0 <CEcoUART1Device_025F3EF0_Config_QueryInterface+0x170>
   82c40:	90000020 	adrp	x0, 86000 <g_xCEcoFactoryList1_42757331+0x100>
   82c44:	910d6000 	add	x0, x0, #0x358
   82c48:	aa0003e1 	mov	x1, x0
   82c4c:	f94013a0 	ldr	x0, [x29, #32]
   82c50:	97fffcd0 	bl	81f90 <IsEqualUGUIDB40E129B56624BD7B5F8339C025F3EF0>
   82c54:	12001c00 	and	w0, w0, #0xff
   82c58:	7100001f 	cmp	w0, #0x0
   82c5c:	54000160 	b.eq	82c88 <CEcoUART1Device_025F3EF0_Config_QueryInterface+0x118>  // b.none
   82c60:	f9401fa0 	ldr	x0, [x29, #56]
   82c64:	9100c001 	add	x1, x0, #0x30
   82c68:	f9400fa0 	ldr	x0, [x29, #24]
   82c6c:	f9000001 	str	x1, [x0]
   82c70:	f9401fa0 	ldr	x0, [x29, #56]
   82c74:	f9400000 	ldr	x0, [x0]
   82c78:	f9400401 	ldr	x1, [x0, #8]
   82c7c:	f9401fa0 	ldr	x0, [x29, #56]
   82c80:	d63f0020 	blr	x1
   82c84:	14000017 	b	82ce0 <CEcoUART1Device_025F3EF0_Config_QueryInterface+0x170>
   82c88:	90000020 	adrp	x0, 86000 <g_xCEcoFactoryList1_42757331+0x100>
   82c8c:	910dc000 	add	x0, x0, #0x370
   82c90:	aa0003e1 	mov	x1, x0
   82c94:	f94013a0 	ldr	x0, [x29, #32]
   82c98:	97fffcbe 	bl	81f90 <IsEqualUGUIDB40E129B56624BD7B5F8339C025F3EF0>
   82c9c:	12001c00 	and	w0, w0, #0xff
   82ca0:	7100001f 	cmp	w0, #0x0
   82ca4:	54000160 	b.eq	82cd0 <CEcoUART1Device_025F3EF0_Config_QueryInterface+0x160>  // b.none
   82ca8:	f9401fa0 	ldr	x0, [x29, #56]
   82cac:	91004001 	add	x1, x0, #0x10
   82cb0:	f9400fa0 	ldr	x0, [x29, #24]
   82cb4:	f9000001 	str	x1, [x0]
   82cb8:	f9401fa0 	ldr	x0, [x29, #56]
   82cbc:	f9400000 	ldr	x0, [x0]
   82cc0:	f9400401 	ldr	x1, [x0, #8]
   82cc4:	f9401fa0 	ldr	x0, [x29, #56]
   82cc8:	d63f0020 	blr	x1
   82ccc:	14000005 	b	82ce0 <CEcoUART1Device_025F3EF0_Config_QueryInterface+0x170>
   82cd0:	f9400fa0 	ldr	x0, [x29, #24]
   82cd4:	f900001f 	str	xzr, [x0]
   82cd8:	12800000 	mov	w0, #0xffffffff            	// #-1
   82cdc:	14000002 	b	82ce4 <CEcoUART1Device_025F3EF0_Config_QueryInterface+0x174>
   82ce0:	52800000 	mov	w0, #0x0                   	// #0
   82ce4:	a8c47bfd 	ldp	x29, x30, [sp], #64
   82ce8:	d65f03c0 	ret

0000000000082cec <CEcoUART1Device_025F3EF0_Config_AddRef>:
   82cec:	d10083ff 	sub	sp, sp, #0x20
   82cf0:	f90007e0 	str	x0, [sp, #8]
   82cf4:	f94007e0 	ldr	x0, [sp, #8]
   82cf8:	d1002000 	sub	x0, x0, #0x8
   82cfc:	f9000fe0 	str	x0, [sp, #24]
   82d00:	f94007e0 	ldr	x0, [sp, #8]
   82d04:	f100001f 	cmp	x0, #0x0
   82d08:	54000061 	b.ne	82d14 <CEcoUART1Device_025F3EF0_Config_AddRef+0x28>  // b.any
   82d0c:	12800000 	mov	w0, #0xffffffff            	// #-1
   82d10:	14000008 	b	82d30 <CEcoUART1Device_025F3EF0_Config_AddRef+0x44>
   82d14:	f9400fe0 	ldr	x0, [sp, #24]
   82d18:	b9401800 	ldr	w0, [x0, #24]
   82d1c:	11000401 	add	w1, w0, #0x1
   82d20:	f9400fe0 	ldr	x0, [sp, #24]
   82d24:	b9001801 	str	w1, [x0, #24]
   82d28:	f9400fe0 	ldr	x0, [sp, #24]
   82d2c:	b9401800 	ldr	w0, [x0, #24]
   82d30:	910083ff 	add	sp, sp, #0x20
   82d34:	d65f03c0 	ret

0000000000082d38 <CEcoUART1Device_025F3EF0_Config_Release>:
   82d38:	a9bd7bfd 	stp	x29, x30, [sp, #-48]!
   82d3c:	910003fd 	mov	x29, sp
   82d40:	f9000fa0 	str	x0, [x29, #24]
   82d44:	f9400fa0 	ldr	x0, [x29, #24]
   82d48:	d1002000 	sub	x0, x0, #0x8
   82d4c:	f90017a0 	str	x0, [x29, #40]
   82d50:	f9400fa0 	ldr	x0, [x29, #24]
   82d54:	f100001f 	cmp	x0, #0x0
   82d58:	54000061 	b.ne	82d64 <CEcoUART1Device_025F3EF0_Config_Release+0x2c>  // b.any
   82d5c:	12800000 	mov	w0, #0xffffffff            	// #-1
   82d60:	14000010 	b	82da0 <CEcoUART1Device_025F3EF0_Config_Release+0x68>
   82d64:	f94017a0 	ldr	x0, [x29, #40]
   82d68:	b9401800 	ldr	w0, [x0, #24]
   82d6c:	51000401 	sub	w1, w0, #0x1
   82d70:	f94017a0 	ldr	x0, [x29, #40]
   82d74:	b9001801 	str	w1, [x0, #24]
   82d78:	f94017a0 	ldr	x0, [x29, #40]
   82d7c:	b9401800 	ldr	w0, [x0, #24]
   82d80:	7100001f 	cmp	w0, #0x0
   82d84:	540000a1 	b.ne	82d98 <CEcoUART1Device_025F3EF0_Config_Release+0x60>  // b.any
   82d88:	f94017a0 	ldr	x0, [x29, #40]
   82d8c:	9400015b 	bl	832f8 <deleteCEcoUART1Device_025F3EF0>
   82d90:	52800000 	mov	w0, #0x0                   	// #0
   82d94:	14000003 	b	82da0 <CEcoUART1Device_025F3EF0_Config_Release+0x68>
   82d98:	f94017a0 	ldr	x0, [x29, #40]
   82d9c:	b9401800 	ldr	w0, [x0, #24]
   82da0:	a8c37bfd 	ldp	x29, x30, [sp], #48
   82da4:	d65f03c0 	ret

0000000000082da8 <CEcoUART1Device_025F3EF0_Config_set_ConfigDescriptor>:
   82da8:	d10083ff 	sub	sp, sp, #0x20
   82dac:	f90007e0 	str	x0, [sp, #8]
   82db0:	f90003e1 	str	x1, [sp]
   82db4:	f94007e0 	ldr	x0, [sp, #8]
   82db8:	d1002000 	sub	x0, x0, #0x8
   82dbc:	f9000fe0 	str	x0, [sp, #24]
   82dc0:	f94007e0 	ldr	x0, [sp, #8]
   82dc4:	f100001f 	cmp	x0, #0x0
   82dc8:	54000080 	b.eq	82dd8 <CEcoUART1Device_025F3EF0_Config_set_ConfigDescriptor+0x30>  // b.none
   82dcc:	f94003e0 	ldr	x0, [sp]
   82dd0:	f100001f 	cmp	x0, #0x0
   82dd4:	54000061 	b.ne	82de0 <CEcoUART1Device_025F3EF0_Config_set_ConfigDescriptor+0x38>  // b.any
   82dd8:	12800000 	mov	w0, #0xffffffff            	// #-1
   82ddc:	14000005 	b	82df0 <CEcoUART1Device_025F3EF0_Config_set_ConfigDescriptor+0x48>
   82de0:	f9400fe0 	ldr	x0, [sp, #24]
   82de4:	f94003e1 	ldr	x1, [sp]
   82de8:	f9001801 	str	x1, [x0, #48]
   82dec:	52800000 	mov	w0, #0x0                   	// #0
   82df0:	910083ff 	add	sp, sp, #0x20
   82df4:	d65f03c0 	ret

0000000000082df8 <CEcoUART1Device_025F3EF0_Config_get_ConfigDescriptor>:
   82df8:	d10083ff 	sub	sp, sp, #0x20
   82dfc:	f90007e0 	str	x0, [sp, #8]
   82e00:	f94007e0 	ldr	x0, [sp, #8]
   82e04:	d1002000 	sub	x0, x0, #0x8
   82e08:	f9000fe0 	str	x0, [sp, #24]
   82e0c:	f94007e0 	ldr	x0, [sp, #8]
   82e10:	f100001f 	cmp	x0, #0x0
   82e14:	54000061 	b.ne	82e20 <CEcoUART1Device_025F3EF0_Config_get_ConfigDescriptor+0x28>  // b.any
   82e18:	d2800000 	mov	x0, #0x0                   	// #0
   82e1c:	14000003 	b	82e28 <CEcoUART1Device_025F3EF0_Config_get_ConfigDescriptor+0x30>
   82e20:	f9400fe0 	ldr	x0, [sp, #24]
   82e24:	f9401800 	ldr	x0, [x0, #48]
   82e28:	910083ff 	add	sp, sp, #0x20
   82e2c:	d65f03c0 	ret

0000000000082e30 <CEcoUART1Device_025F3EF0_GPIOConfig_QueryInterface>:
   82e30:	a9bc7bfd 	stp	x29, x30, [sp, #-64]!
   82e34:	910003fd 	mov	x29, sp
   82e38:	f90017a0 	str	x0, [x29, #40]
   82e3c:	f90013a1 	str	x1, [x29, #32]
   82e40:	f9000fa2 	str	x2, [x29, #24]
   82e44:	f94017a0 	ldr	x0, [x29, #40]
   82e48:	d1004000 	sub	x0, x0, #0x10
   82e4c:	f9001fa0 	str	x0, [x29, #56]
   82e50:	12800000 	mov	w0, #0xffffffff            	// #-1
   82e54:	79006fa0 	strh	w0, [x29, #54]
   82e58:	f94017a0 	ldr	x0, [x29, #40]
   82e5c:	f100001f 	cmp	x0, #0x0
   82e60:	54000080 	b.eq	82e70 <CEcoUART1Device_025F3EF0_GPIOConfig_QueryInterface+0x40>  // b.none
   82e64:	f9400fa0 	ldr	x0, [x29, #24]
   82e68:	f100001f 	cmp	x0, #0x0
   82e6c:	54000061 	b.ne	82e78 <CEcoUART1Device_025F3EF0_GPIOConfig_QueryInterface+0x48>  // b.any
   82e70:	79c06fa0 	ldrsh	w0, [x29, #54]
   82e74:	1400004c 	b	82fa4 <CEcoUART1Device_025F3EF0_GPIOConfig_QueryInterface+0x174>
   82e78:	90000020 	adrp	x0, 86000 <g_xCEcoFactoryList1_42757331+0x100>
   82e7c:	910b8000 	add	x0, x0, #0x2e0
   82e80:	aa0003e1 	mov	x1, x0
   82e84:	f94013a0 	ldr	x0, [x29, #32]
   82e88:	97fffc42 	bl	81f90 <IsEqualUGUIDB40E129B56624BD7B5F8339C025F3EF0>
   82e8c:	12001c00 	and	w0, w0, #0xff
   82e90:	7100001f 	cmp	w0, #0x0
   82e94:	54000140 	b.eq	82ebc <CEcoUART1Device_025F3EF0_GPIOConfig_QueryInterface+0x8c>  // b.none
   82e98:	f9401fa1 	ldr	x1, [x29, #56]
   82e9c:	f9400fa0 	ldr	x0, [x29, #24]
   82ea0:	f9000001 	str	x1, [x0]
   82ea4:	f9401fa0 	ldr	x0, [x29, #56]
   82ea8:	f9400000 	ldr	x0, [x0]
   82eac:	f9400401 	ldr	x1, [x0, #8]
   82eb0:	f9401fa0 	ldr	x0, [x29, #56]
   82eb4:	d63f0020 	blr	x1
   82eb8:	1400003a 	b	82fa0 <CEcoUART1Device_025F3EF0_GPIOConfig_QueryInterface+0x170>
   82ebc:	90000020 	adrp	x0, 86000 <g_xCEcoFactoryList1_42757331+0x100>
   82ec0:	910a0000 	add	x0, x0, #0x280
   82ec4:	aa0003e1 	mov	x1, x0
   82ec8:	f94013a0 	ldr	x0, [x29, #32]
   82ecc:	97fffc31 	bl	81f90 <IsEqualUGUIDB40E129B56624BD7B5F8339C025F3EF0>
   82ed0:	12001c00 	and	w0, w0, #0xff
   82ed4:	7100001f 	cmp	w0, #0x0
   82ed8:	54000140 	b.eq	82f00 <CEcoUART1Device_025F3EF0_GPIOConfig_QueryInterface+0xd0>  // b.none
   82edc:	f9401fa1 	ldr	x1, [x29, #56]
   82ee0:	f9400fa0 	ldr	x0, [x29, #24]
   82ee4:	f9000001 	str	x1, [x0]
   82ee8:	f9401fa0 	ldr	x0, [x29, #56]
   82eec:	f9400000 	ldr	x0, [x0]
   82ef0:	f9400401 	ldr	x1, [x0, #8]
   82ef4:	f9401fa0 	ldr	x0, [x29, #56]
   82ef8:	d63f0020 	blr	x1
   82efc:	14000029 	b	82fa0 <CEcoUART1Device_025F3EF0_GPIOConfig_QueryInterface+0x170>
   82f00:	90000020 	adrp	x0, 86000 <g_xCEcoFactoryList1_42757331+0x100>
   82f04:	910d6000 	add	x0, x0, #0x358
   82f08:	aa0003e1 	mov	x1, x0
   82f0c:	f94013a0 	ldr	x0, [x29, #32]
   82f10:	97fffc20 	bl	81f90 <IsEqualUGUIDB40E129B56624BD7B5F8339C025F3EF0>
   82f14:	12001c00 	and	w0, w0, #0xff
   82f18:	7100001f 	cmp	w0, #0x0
   82f1c:	54000160 	b.eq	82f48 <CEcoUART1Device_025F3EF0_GPIOConfig_QueryInterface+0x118>  // b.none
   82f20:	f9401fa0 	ldr	x0, [x29, #56]
   82f24:	91002001 	add	x1, x0, #0x8
   82f28:	f9400fa0 	ldr	x0, [x29, #24]
   82f2c:	f9000001 	str	x1, [x0]
   82f30:	f9401fa0 	ldr	x0, [x29, #56]
   82f34:	f9400000 	ldr	x0, [x0]
   82f38:	f9400401 	ldr	x1, [x0, #8]
   82f3c:	f9401fa0 	ldr	x0, [x29, #56]
   82f40:	d63f0020 	blr	x1
   82f44:	14000017 	b	82fa0 <CEcoUART1Device_025F3EF0_GPIOConfig_QueryInterface+0x170>
   82f48:	90000020 	adrp	x0, 86000 <g_xCEcoFactoryList1_42757331+0x100>
   82f4c:	910dc000 	add	x0, x0, #0x370
   82f50:	aa0003e1 	mov	x1, x0
   82f54:	f94013a0 	ldr	x0, [x29, #32]
   82f58:	97fffc0e 	bl	81f90 <IsEqualUGUIDB40E129B56624BD7B5F8339C025F3EF0>
   82f5c:	12001c00 	and	w0, w0, #0xff
   82f60:	7100001f 	cmp	w0, #0x0
   82f64:	54000160 	b.eq	82f90 <CEcoUART1Device_025F3EF0_GPIOConfig_QueryInterface+0x160>  // b.none
   82f68:	f9401fa0 	ldr	x0, [x29, #56]
   82f6c:	91004001 	add	x1, x0, #0x10
   82f70:	f9400fa0 	ldr	x0, [x29, #24]
   82f74:	f9000001 	str	x1, [x0]
   82f78:	f9401fa0 	ldr	x0, [x29, #56]
   82f7c:	f9400000 	ldr	x0, [x0]
   82f80:	f9400401 	ldr	x1, [x0, #8]
   82f84:	f9401fa0 	ldr	x0, [x29, #56]
   82f88:	d63f0020 	blr	x1
   82f8c:	14000005 	b	82fa0 <CEcoUART1Device_025F3EF0_GPIOConfig_QueryInterface+0x170>
   82f90:	f9400fa0 	ldr	x0, [x29, #24]
   82f94:	f900001f 	str	xzr, [x0]
   82f98:	12800000 	mov	w0, #0xffffffff            	// #-1
   82f9c:	14000002 	b	82fa4 <CEcoUART1Device_025F3EF0_GPIOConfig_QueryInterface+0x174>
   82fa0:	52800000 	mov	w0, #0x0                   	// #0
   82fa4:	a8c47bfd 	ldp	x29, x30, [sp], #64
   82fa8:	d65f03c0 	ret

0000000000082fac <CEcoUART1Device_025F3EF0_GPIOConfig_AddRef>:
   82fac:	d10083ff 	sub	sp, sp, #0x20
   82fb0:	f90007e0 	str	x0, [sp, #8]
   82fb4:	f94007e0 	ldr	x0, [sp, #8]
   82fb8:	d1004000 	sub	x0, x0, #0x10
   82fbc:	f9000fe0 	str	x0, [sp, #24]
   82fc0:	f94007e0 	ldr	x0, [sp, #8]
   82fc4:	f100001f 	cmp	x0, #0x0
   82fc8:	54000061 	b.ne	82fd4 <CEcoUART1Device_025F3EF0_GPIOConfig_AddRef+0x28>  // b.any
   82fcc:	12800000 	mov	w0, #0xffffffff            	// #-1
   82fd0:	14000008 	b	82ff0 <CEcoUART1Device_025F3EF0_GPIOConfig_AddRef+0x44>
   82fd4:	f9400fe0 	ldr	x0, [sp, #24]
   82fd8:	b9401800 	ldr	w0, [x0, #24]
   82fdc:	11000401 	add	w1, w0, #0x1
   82fe0:	f9400fe0 	ldr	x0, [sp, #24]
   82fe4:	b9001801 	str	w1, [x0, #24]
   82fe8:	f9400fe0 	ldr	x0, [sp, #24]
   82fec:	b9401800 	ldr	w0, [x0, #24]
   82ff0:	910083ff 	add	sp, sp, #0x20
   82ff4:	d65f03c0 	ret

0000000000082ff8 <CEcoUART1Device_025F3EF0_GPIOConfig_Release>:
   82ff8:	a9bd7bfd 	stp	x29, x30, [sp, #-48]!
   82ffc:	910003fd 	mov	x29, sp
   83000:	f9000fa0 	str	x0, [x29, #24]
   83004:	f9400fa0 	ldr	x0, [x29, #24]
   83008:	d1004000 	sub	x0, x0, #0x10
   8300c:	f90017a0 	str	x0, [x29, #40]
   83010:	f9400fa0 	ldr	x0, [x29, #24]
   83014:	f100001f 	cmp	x0, #0x0
   83018:	54000061 	b.ne	83024 <CEcoUART1Device_025F3EF0_GPIOConfig_Release+0x2c>  // b.any
   8301c:	12800000 	mov	w0, #0xffffffff            	// #-1
   83020:	14000010 	b	83060 <CEcoUART1Device_025F3EF0_GPIOConfig_Release+0x68>
   83024:	f94017a0 	ldr	x0, [x29, #40]
   83028:	b9401800 	ldr	w0, [x0, #24]
   8302c:	51000401 	sub	w1, w0, #0x1
   83030:	f94017a0 	ldr	x0, [x29, #40]
   83034:	b9001801 	str	w1, [x0, #24]
   83038:	f94017a0 	ldr	x0, [x29, #40]
   8303c:	b9401800 	ldr	w0, [x0, #24]
   83040:	7100001f 	cmp	w0, #0x0
   83044:	540000a1 	b.ne	83058 <CEcoUART1Device_025F3EF0_GPIOConfig_Release+0x60>  // b.any
   83048:	f94017a0 	ldr	x0, [x29, #40]
   8304c:	940000ab 	bl	832f8 <deleteCEcoUART1Device_025F3EF0>
   83050:	52800000 	mov	w0, #0x0                   	// #0
   83054:	14000003 	b	83060 <CEcoUART1Device_025F3EF0_GPIOConfig_Release+0x68>
   83058:	f94017a0 	ldr	x0, [x29, #40]
   8305c:	b9401800 	ldr	w0, [x0, #24]
   83060:	a8c37bfd 	ldp	x29, x30, [sp], #48
   83064:	d65f03c0 	ret

0000000000083068 <CEcoUART1Device_025F3EF0_GPIOConfig_set_ConfigDescriptor>:
   83068:	d10083ff 	sub	sp, sp, #0x20
   8306c:	f90007e0 	str	x0, [sp, #8]
   83070:	f90003e1 	str	x1, [sp]
   83074:	f94007e0 	ldr	x0, [sp, #8]
   83078:	d1004000 	sub	x0, x0, #0x10
   8307c:	f9000fe0 	str	x0, [sp, #24]
   83080:	f94007e0 	ldr	x0, [sp, #8]
   83084:	f100001f 	cmp	x0, #0x0
   83088:	54000080 	b.eq	83098 <CEcoUART1Device_025F3EF0_GPIOConfig_set_ConfigDescriptor+0x30>  // b.none
   8308c:	f94003e0 	ldr	x0, [sp]
   83090:	f100001f 	cmp	x0, #0x0
   83094:	54000061 	b.ne	830a0 <CEcoUART1Device_025F3EF0_GPIOConfig_set_ConfigDescriptor+0x38>  // b.any
   83098:	12800000 	mov	w0, #0xffffffff            	// #-1
   8309c:	14000005 	b	830b0 <CEcoUART1Device_025F3EF0_GPIOConfig_set_ConfigDescriptor+0x48>
   830a0:	f9400fe0 	ldr	x0, [sp, #24]
   830a4:	f94003e1 	ldr	x1, [sp]
   830a8:	f9001c01 	str	x1, [x0, #56]
   830ac:	52800000 	mov	w0, #0x0                   	// #0
   830b0:	910083ff 	add	sp, sp, #0x20
   830b4:	d65f03c0 	ret

00000000000830b8 <CEcoUART1Device_025F3EF0_GPIOConfig_get_ConfigDescriptor>:
   830b8:	d10083ff 	sub	sp, sp, #0x20
   830bc:	f90007e0 	str	x0, [sp, #8]
   830c0:	f94007e0 	ldr	x0, [sp, #8]
   830c4:	d1004000 	sub	x0, x0, #0x10
   830c8:	f9000fe0 	str	x0, [sp, #24]
   830cc:	f94007e0 	ldr	x0, [sp, #8]
   830d0:	f100001f 	cmp	x0, #0x0
   830d4:	54000061 	b.ne	830e0 <CEcoUART1Device_025F3EF0_GPIOConfig_get_ConfigDescriptor+0x28>  // b.any
   830d8:	d2800000 	mov	x0, #0x0                   	// #0
   830dc:	14000003 	b	830e8 <CEcoUART1Device_025F3EF0_GPIOConfig_get_ConfigDescriptor+0x30>
   830e0:	f9400fe0 	ldr	x0, [sp, #24]
   830e4:	f9401c00 	ldr	x0, [x0, #56]
   830e8:	910083ff 	add	sp, sp, #0x20
   830ec:	d65f03c0 	ret

00000000000830f0 <CEcoUART1Device_025F3EF0_GPIOConfig_set_LogicalPinNumber>:
   830f0:	d100c3ff 	sub	sp, sp, #0x30
   830f4:	f90007e0 	str	x0, [sp, #8]
   830f8:	39001fe1 	strb	w1, [sp, #7]
   830fc:	39001be2 	strb	w2, [sp, #6]
   83100:	b90003e3 	str	w3, [sp]
   83104:	f94007e0 	ldr	x0, [sp, #8]
   83108:	d1004000 	sub	x0, x0, #0x10
   8310c:	f90013e0 	str	x0, [sp, #32]
   83110:	f9000fff 	str	xzr, [sp, #24]
   83114:	3900bfff 	strb	wzr, [sp, #47]
   83118:	12800000 	mov	w0, #0xffffffff            	// #-1
   8311c:	79005be0 	strh	w0, [sp, #44]
   83120:	f94007e0 	ldr	x0, [sp, #8]
   83124:	f100001f 	cmp	x0, #0x0
   83128:	54000061 	b.ne	83134 <CEcoUART1Device_025F3EF0_GPIOConfig_set_LogicalPinNumber+0x44>  // b.any
   8312c:	12800000 	mov	w0, #0xffffffff            	// #-1
   83130:	14000031 	b	831f4 <CEcoUART1Device_025F3EF0_GPIOConfig_set_LogicalPinNumber+0x104>
   83134:	f94013e0 	ldr	x0, [sp, #32]
   83138:	f9401c00 	ldr	x0, [x0, #56]
   8313c:	f9000fe0 	str	x0, [sp, #24]
   83140:	f9400fe0 	ldr	x0, [sp, #24]
   83144:	f100001f 	cmp	x0, #0x0
   83148:	54000540 	b.eq	831f0 <CEcoUART1Device_025F3EF0_GPIOConfig_set_LogicalPinNumber+0x100>  // b.none
   8314c:	3900bfff 	strb	wzr, [sp, #47]
   83150:	14000023 	b	831dc <CEcoUART1Device_025F3EF0_GPIOConfig_set_LogicalPinNumber+0xec>
   83154:	3940bfe0 	ldrb	w0, [sp, #47]
   83158:	52800021 	mov	w1, #0x1                   	// #1
   8315c:	1ac02020 	lsl	w0, w1, w0
   83160:	2a0003e1 	mov	w1, w0
   83164:	b94003e0 	ldr	w0, [sp]
   83168:	0a000020 	and	w0, w1, w0
   8316c:	7100001f 	cmp	w0, #0x0
   83170:	54000300 	b.eq	831d0 <CEcoUART1Device_025F3EF0_GPIOConfig_set_LogicalPinNumber+0xe0>  // b.none
   83174:	39401be0 	ldrb	w0, [sp, #6]
   83178:	7100001f 	cmp	w0, #0x0
   8317c:	54000121 	b.ne	831a0 <CEcoUART1Device_025F3EF0_GPIOConfig_set_LogicalPinNumber+0xb0>  // b.any
   83180:	3940bfe0 	ldrb	w0, [sp, #47]
   83184:	f9400fe1 	ldr	x1, [sp, #24]
   83188:	93407c00 	sxtw	x0, w0
   8318c:	8b000020 	add	x0, x1, x0
   83190:	39401fe1 	ldrb	w1, [sp, #7]
   83194:	39002001 	strb	w1, [x0, #8]
   83198:	79005bff 	strh	wzr, [sp, #44]
   8319c:	14000014 	b	831ec <CEcoUART1Device_025F3EF0_GPIOConfig_set_LogicalPinNumber+0xfc>
   831a0:	39401be0 	ldrb	w0, [sp, #6]
   831a4:	7100041f 	cmp	w0, #0x1
   831a8:	54000221 	b.ne	831ec <CEcoUART1Device_025F3EF0_GPIOConfig_set_LogicalPinNumber+0xfc>  // b.any
   831ac:	3940bfe0 	ldrb	w0, [sp, #47]
   831b0:	11008000 	add	w0, w0, #0x20
   831b4:	f9400fe1 	ldr	x1, [sp, #24]
   831b8:	93407c00 	sxtw	x0, w0
   831bc:	8b000020 	add	x0, x1, x0
   831c0:	39401fe1 	ldrb	w1, [sp, #7]
   831c4:	39002001 	strb	w1, [x0, #8]
   831c8:	79005bff 	strh	wzr, [sp, #44]
   831cc:	14000008 	b	831ec <CEcoUART1Device_025F3EF0_GPIOConfig_set_LogicalPinNumber+0xfc>
   831d0:	3940bfe0 	ldrb	w0, [sp, #47]
   831d4:	11000400 	add	w0, w0, #0x1
   831d8:	3900bfe0 	strb	w0, [sp, #47]
   831dc:	3940bfe0 	ldrb	w0, [sp, #47]
   831e0:	71007c1f 	cmp	w0, #0x1f
   831e4:	54fffb89 	b.ls	83154 <CEcoUART1Device_025F3EF0_GPIOConfig_set_LogicalPinNumber+0x64>  // b.plast
   831e8:	14000002 	b	831f0 <CEcoUART1Device_025F3EF0_GPIOConfig_set_LogicalPinNumber+0x100>
   831ec:	d503201f 	nop
   831f0:	79c05be0 	ldrsh	w0, [sp, #44]
   831f4:	9100c3ff 	add	sp, sp, #0x30
   831f8:	d65f03c0 	ret

00000000000831fc <createCEcoUART1Device_025F3EF0>:
   831fc:	d10143ff 	sub	sp, sp, #0x50
   83200:	f9000fe0 	str	x0, [sp, #24]
   83204:	f9000be1 	str	x1, [sp, #16]
   83208:	f90007e2 	str	x2, [sp, #8]
   8320c:	12800000 	mov	w0, #0xffffffff            	// #-1
   83210:	79008fe0 	strh	w0, [sp, #70]
   83214:	f9001fff 	str	xzr, [sp, #56]
   83218:	f9001bff 	str	xzr, [sp, #48]
   8321c:	f90017ff 	str	xzr, [sp, #40]
   83220:	f90027ff 	str	xzr, [sp, #72]
   83224:	79004fff 	strh	wzr, [sp, #38]
   83228:	f94007e0 	ldr	x0, [sp, #8]
   8322c:	f100001f 	cmp	x0, #0x0
   83230:	54000080 	b.eq	83240 <createCEcoUART1Device_025F3EF0+0x44>  // b.none
   83234:	f9400fe0 	ldr	x0, [sp, #24]
   83238:	f100001f 	cmp	x0, #0x0
   8323c:	54000061 	b.ne	83248 <createCEcoUART1Device_025F3EF0+0x4c>  // b.any
   83240:	79c08fe0 	ldrsh	w0, [sp, #70]
   83244:	1400002b 	b	832f0 <createCEcoUART1Device_025F3EF0+0xf4>
   83248:	d0000000 	adrp	x0, 85000 <CEcoIPCCMailbox1_QueryInterface+0x180>
   8324c:	91380000 	add	x0, x0, #0xe00
   83250:	f90027e0 	str	x0, [sp, #72]
   83254:	f94027e0 	ldr	x0, [sp, #72]
   83258:	b9401800 	ldr	w0, [x0, #24]
   8325c:	7100001f 	cmp	w0, #0x0
   83260:	54000220 	b.eq	832a4 <createCEcoUART1Device_025F3EF0+0xa8>  // b.none
   83264:	d0000000 	adrp	x0, 85000 <CEcoIPCCMailbox1_QueryInterface+0x180>
   83268:	91390000 	add	x0, x0, #0xe40
   8326c:	f90027e0 	str	x0, [sp, #72]
   83270:	f94027e0 	ldr	x0, [sp, #72]
   83274:	b9401800 	ldr	w0, [x0, #24]
   83278:	7100001f 	cmp	w0, #0x0
   8327c:	54000140 	b.eq	832a4 <createCEcoUART1Device_025F3EF0+0xa8>  // b.none
   83280:	d0000000 	adrp	x0, 85000 <CEcoIPCCMailbox1_QueryInterface+0x180>
   83284:	913a0000 	add	x0, x0, #0xe80
   83288:	f90027e0 	str	x0, [sp, #72]
   8328c:	f94027e0 	ldr	x0, [sp, #72]
   83290:	b9401800 	ldr	w0, [x0, #24]
   83294:	7100001f 	cmp	w0, #0x0
   83298:	54000060 	b.eq	832a4 <createCEcoUART1Device_025F3EF0+0xa8>  // b.none
   8329c:	79c08fe0 	ldrsh	w0, [sp, #70]
   832a0:	14000014 	b	832f0 <createCEcoUART1Device_025F3EF0+0xf4>
   832a4:	f94027e0 	ldr	x0, [sp, #72]
   832a8:	52800021 	mov	w1, #0x1                   	// #1
   832ac:	b9001801 	str	w1, [x0, #24]
   832b0:	f94027e0 	ldr	x0, [sp, #72]
   832b4:	d0000001 	adrp	x1, 85000 <CEcoIPCCMailbox1_QueryInterface+0x180>
   832b8:	912a0021 	add	x1, x1, #0xa80
   832bc:	f9000001 	str	x1, [x0]
   832c0:	f94027e0 	ldr	x0, [sp, #72]
   832c4:	d0000001 	adrp	x1, 85000 <CEcoIPCCMailbox1_QueryInterface+0x180>
   832c8:	912ae021 	add	x1, x1, #0xab8
   832cc:	f9000401 	str	x1, [x0, #8]
   832d0:	f94027e0 	ldr	x0, [sp, #72]
   832d4:	d0000001 	adrp	x1, 85000 <CEcoIPCCMailbox1_QueryInterface+0x180>
   832d8:	912b8021 	add	x1, x1, #0xae0
   832dc:	f9000801 	str	x1, [x0, #16]
   832e0:	f94007e0 	ldr	x0, [sp, #8]
   832e4:	f94027e1 	ldr	x1, [sp, #72]
   832e8:	f9000001 	str	x1, [x0]
   832ec:	52800000 	mov	w0, #0x0                   	// #0
   832f0:	910143ff 	add	sp, sp, #0x50
   832f4:	d65f03c0 	ret

00000000000832f8 <deleteCEcoUART1Device_025F3EF0>:
   832f8:	d10083ff 	sub	sp, sp, #0x20
   832fc:	f90007e0 	str	x0, [sp, #8]
   83300:	f94007e0 	ldr	x0, [sp, #8]
   83304:	f9000fe0 	str	x0, [sp, #24]
   83308:	f9000bff 	str	xzr, [sp, #16]
   8330c:	f94007e0 	ldr	x0, [sp, #8]
   83310:	f100001f 	cmp	x0, #0x0
   83314:	54000080 	b.eq	83324 <deleteCEcoUART1Device_025F3EF0+0x2c>  // b.none
   83318:	f9400fe0 	ldr	x0, [sp, #24]
   8331c:	f9401000 	ldr	x0, [x0, #32]
   83320:	f9000be0 	str	x0, [sp, #16]
   83324:	d503201f 	nop
   83328:	910083ff 	add	sp, sp, #0x20
   8332c:	d65f03c0 	ret

0000000000083330 <IsEqualUGUID_00000000000000000000000042757331>:
   83330:	d10083ff 	sub	sp, sp, #0x20
   83334:	f90007e0 	str	x0, [sp, #8]
   83338:	f90003e1 	str	x1, [sp]
   8333c:	39007fff 	strb	wzr, [sp, #31]
   83340:	39007bff 	strb	wzr, [sp, #30]
   83344:	39007bff 	strb	wzr, [sp, #30]
   83348:	14000015 	b	8339c <IsEqualUGUID_00000000000000000000000042757331+0x6c>
   8334c:	39807be0 	ldrsb	x0, [sp, #30]
   83350:	f94007e1 	ldr	x1, [sp, #8]
   83354:	8b000020 	add	x0, x1, x0
   83358:	39400001 	ldrb	w1, [x0]
   8335c:	39807be0 	ldrsb	x0, [sp, #30]
   83360:	f94003e2 	ldr	x2, [sp]
   83364:	8b000040 	add	x0, x2, x0
   83368:	39400000 	ldrb	w0, [x0]
   8336c:	6b00003f 	cmp	w1, w0
   83370:	54000081 	b.ne	83380 <IsEqualUGUID_00000000000000000000000042757331+0x50>  // b.any
   83374:	52800020 	mov	w0, #0x1                   	// #1
   83378:	39007fe0 	strb	w0, [sp, #31]
   8337c:	14000003 	b	83388 <IsEqualUGUID_00000000000000000000000042757331+0x58>
   83380:	39007fff 	strb	wzr, [sp, #31]
   83384:	14000009 	b	833a8 <IsEqualUGUID_00000000000000000000000042757331+0x78>
   83388:	39c07be0 	ldrsb	w0, [sp, #30]
   8338c:	12001c00 	and	w0, w0, #0xff
   83390:	11000400 	add	w0, w0, #0x1
   83394:	12001c00 	and	w0, w0, #0xff
   83398:	39007be0 	strb	w0, [sp, #30]
   8339c:	39c07be0 	ldrsb	w0, [sp, #30]
   833a0:	7100441f 	cmp	w0, #0x11
   833a4:	54fffd4d 	b.le	8334c <IsEqualUGUID_00000000000000000000000042757331+0x1c>
   833a8:	39407fe0 	ldrb	w0, [sp, #31]
   833ac:	910083ff 	add	sp, sp, #0x20
   833b0:	d65f03c0 	ret

00000000000833b4 <CEcoInterfaceBus1Factory_42757331_QueryInterface>:
   833b4:	a9bc7bfd 	stp	x29, x30, [sp, #-64]!
   833b8:	910003fd 	mov	x29, sp
   833bc:	f90017a0 	str	x0, [x29, #40]
   833c0:	f90013a1 	str	x1, [x29, #32]
   833c4:	f9000fa2 	str	x2, [x29, #24]
   833c8:	f9001fbf 	str	xzr, [x29, #56]
   833cc:	f9400fa0 	ldr	x0, [x29, #24]
   833d0:	f9001fa0 	str	x0, [x29, #56]
   833d4:	f0000000 	adrp	x0, 86000 <g_xCEcoFactoryList1_42757331+0x100>
   833d8:	910e4000 	add	x0, x0, #0x390
   833dc:	aa0003e1 	mov	x1, x0
   833e0:	f94013a0 	ldr	x0, [x29, #32]
   833e4:	97ffffd3 	bl	83330 <IsEqualUGUID_00000000000000000000000042757331>
   833e8:	12001c00 	and	w0, w0, #0xff
   833ec:	7100001f 	cmp	w0, #0x0
   833f0:	54000121 	b.ne	83414 <CEcoInterfaceBus1Factory_42757331_QueryInterface+0x60>  // b.any
   833f4:	f0000000 	adrp	x0, 86000 <g_xCEcoFactoryList1_42757331+0x100>
   833f8:	910ea000 	add	x0, x0, #0x3a8
   833fc:	aa0003e1 	mov	x1, x0
   83400:	f94013a0 	ldr	x0, [x29, #32]
   83404:	97ffffcb 	bl	83330 <IsEqualUGUID_00000000000000000000000042757331>
   83408:	12001c00 	and	w0, w0, #0xff
   8340c:	7100001f 	cmp	w0, #0x0
   83410:	54000160 	b.eq	8343c <CEcoInterfaceBus1Factory_42757331_QueryInterface+0x88>  // b.none
   83414:	f9400fa0 	ldr	x0, [x29, #24]
   83418:	f94017a1 	ldr	x1, [x29, #40]
   8341c:	f9000001 	str	x1, [x0]
   83420:	f94017a0 	ldr	x0, [x29, #40]
   83424:	f9400000 	ldr	x0, [x0]
   83428:	f9400401 	ldr	x1, [x0, #8]
   8342c:	f94017a0 	ldr	x0, [x29, #40]
   83430:	d63f0020 	blr	x1
   83434:	52800000 	mov	w0, #0x0                   	// #0
   83438:	14000004 	b	83448 <CEcoInterfaceBus1Factory_42757331_QueryInterface+0x94>
   8343c:	f9400fa0 	ldr	x0, [x29, #24]
   83440:	f900001f 	str	xzr, [x0]
   83444:	12800000 	mov	w0, #0xffffffff            	// #-1
   83448:	a8c47bfd 	ldp	x29, x30, [sp], #64
   8344c:	d65f03c0 	ret

0000000000083450 <CEcoInterfaceBus1Factory_42757331_AddRef>:
   83450:	d10083ff 	sub	sp, sp, #0x20
   83454:	f90007e0 	str	x0, [sp, #8]
   83458:	f94007e0 	ldr	x0, [sp, #8]
   8345c:	f9000fe0 	str	x0, [sp, #24]
   83460:	f94007e0 	ldr	x0, [sp, #8]
   83464:	f100001f 	cmp	x0, #0x0
   83468:	54000061 	b.ne	83474 <CEcoInterfaceBus1Factory_42757331_AddRef+0x24>  // b.any
   8346c:	12800000 	mov	w0, #0xffffffff            	// #-1
   83470:	14000008 	b	83490 <CEcoInterfaceBus1Factory_42757331_AddRef+0x40>
   83474:	f9400fe0 	ldr	x0, [sp, #24]
   83478:	b9400800 	ldr	w0, [x0, #8]
   8347c:	11000401 	add	w1, w0, #0x1
   83480:	f9400fe0 	ldr	x0, [sp, #24]
   83484:	b9000801 	str	w1, [x0, #8]
   83488:	f9400fe0 	ldr	x0, [sp, #24]
   8348c:	b9400800 	ldr	w0, [x0, #8]
   83490:	910083ff 	add	sp, sp, #0x20
   83494:	d65f03c0 	ret

0000000000083498 <CEcoInterfaceBus1Factory_42757331_Release>:
   83498:	d10083ff 	sub	sp, sp, #0x20
   8349c:	f90007e0 	str	x0, [sp, #8]
   834a0:	f94007e0 	ldr	x0, [sp, #8]
   834a4:	f9000fe0 	str	x0, [sp, #24]
   834a8:	f94007e0 	ldr	x0, [sp, #8]
   834ac:	f100001f 	cmp	x0, #0x0
   834b0:	54000061 	b.ne	834bc <CEcoInterfaceBus1Factory_42757331_Release+0x24>  // b.any
   834b4:	12800000 	mov	w0, #0xffffffff            	// #-1
   834b8:	1400000e 	b	834f0 <CEcoInterfaceBus1Factory_42757331_Release+0x58>
   834bc:	f9400fe0 	ldr	x0, [sp, #24]
   834c0:	b9400800 	ldr	w0, [x0, #8]
   834c4:	51000401 	sub	w1, w0, #0x1
   834c8:	f9400fe0 	ldr	x0, [sp, #24]
   834cc:	b9000801 	str	w1, [x0, #8]
   834d0:	f9400fe0 	ldr	x0, [sp, #24]
   834d4:	b9400800 	ldr	w0, [x0, #8]
   834d8:	7100001f 	cmp	w0, #0x0
   834dc:	54000061 	b.ne	834e8 <CEcoInterfaceBus1Factory_42757331_Release+0x50>  // b.any
   834e0:	52800000 	mov	w0, #0x0                   	// #0
   834e4:	14000003 	b	834f0 <CEcoInterfaceBus1Factory_42757331_Release+0x58>
   834e8:	f9400fe0 	ldr	x0, [sp, #24]
   834ec:	b9400800 	ldr	w0, [x0, #8]
   834f0:	910083ff 	add	sp, sp, #0x20
   834f4:	d65f03c0 	ret

00000000000834f8 <CEcoInterfaceBus1Factory_42757331_Init>:
   834f8:	a9bc7bfd 	stp	x29, x30, [sp, #-64]!
   834fc:	910003fd 	mov	x29, sp
   83500:	f90017a0 	str	x0, [x29, #40]
   83504:	f90013a1 	str	x1, [x29, #32]
   83508:	f9000fa2 	str	x2, [x29, #24]
   8350c:	f94017a0 	ldr	x0, [x29, #40]
   83510:	f9001fa0 	str	x0, [x29, #56]
   83514:	12800000 	mov	w0, #0xffffffff            	// #-1
   83518:	79006fa0 	strh	w0, [x29, #54]
   8351c:	f94017a0 	ldr	x0, [x29, #40]
   83520:	f100001f 	cmp	x0, #0x0
   83524:	54000061 	b.ne	83530 <CEcoInterfaceBus1Factory_42757331_Init+0x38>  // b.any
   83528:	12800000 	mov	w0, #0xffffffff            	// #-1
   8352c:	14000008 	b	8354c <CEcoInterfaceBus1Factory_42757331_Init+0x54>
   83530:	f9401fa0 	ldr	x0, [x29, #56]
   83534:	f9400c02 	ldr	x2, [x0, #24]
   83538:	f94013a1 	ldr	x1, [x29, #32]
   8353c:	f9400fa0 	ldr	x0, [x29, #24]
   83540:	d63f0040 	blr	x2
   83544:	79006fa0 	strh	w0, [x29, #54]
   83548:	79c06fa0 	ldrsh	w0, [x29, #54]
   8354c:	a8c47bfd 	ldp	x29, x30, [sp], #64
   83550:	d65f03c0 	ret

0000000000083554 <CEcoInterfaceBus1Factory_42757331_Alloc>:
   83554:	a9ba7bfd 	stp	x29, x30, [sp, #-96]!
   83558:	910003fd 	mov	x29, sp
   8355c:	f9001fa0 	str	x0, [x29, #56]
   83560:	f9001ba1 	str	x1, [x29, #48]
   83564:	f90017a2 	str	x2, [x29, #40]
   83568:	f90013a3 	str	x3, [x29, #32]
   8356c:	f9000fa4 	str	x4, [x29, #24]
   83570:	f9401fa0 	ldr	x0, [x29, #56]
   83574:	f9002fa0 	str	x0, [x29, #88]
   83578:	f90027bf 	str	xzr, [x29, #72]
   8357c:	12800000 	mov	w0, #0xffffffff            	// #-1
   83580:	7900afa0 	strh	w0, [x29, #86]
   83584:	f9401fa0 	ldr	x0, [x29, #56]
   83588:	f100001f 	cmp	x0, #0x0
   8358c:	54000061 	b.ne	83598 <CEcoInterfaceBus1Factory_42757331_Alloc+0x44>  // b.any
   83590:	12800000 	mov	w0, #0xffffffff            	// #-1
   83594:	1400002c 	b	83644 <CEcoInterfaceBus1Factory_42757331_Alloc+0xf0>
   83598:	f94017a0 	ldr	x0, [x29, #40]
   8359c:	f100001f 	cmp	x0, #0x0
   835a0:	54000160 	b.eq	835cc <CEcoInterfaceBus1Factory_42757331_Alloc+0x78>  // b.none
   835a4:	f0000000 	adrp	x0, 86000 <g_xCEcoFactoryList1_42757331+0x100>
   835a8:	910e4000 	add	x0, x0, #0x390
   835ac:	aa0003e1 	mov	x1, x0
   835b0:	f94013a0 	ldr	x0, [x29, #32]
   835b4:	97ffff5f 	bl	83330 <IsEqualUGUID_00000000000000000000000042757331>
   835b8:	12001c00 	and	w0, w0, #0xff
   835bc:	7100001f 	cmp	w0, #0x0
   835c0:	54000061 	b.ne	835cc <CEcoInterfaceBus1Factory_42757331_Alloc+0x78>  // b.any
   835c4:	12800000 	mov	w0, #0xffffffff            	// #-1
   835c8:	1400001f 	b	83644 <CEcoInterfaceBus1Factory_42757331_Alloc+0xf0>
   835cc:	f9402fa0 	ldr	x0, [x29, #88]
   835d0:	f9400803 	ldr	x3, [x0, #16]
   835d4:	910123a0 	add	x0, x29, #0x48
   835d8:	aa0003e2 	mov	x2, x0
   835dc:	f94017a1 	ldr	x1, [x29, #40]
   835e0:	f9401ba0 	ldr	x0, [x29, #48]
   835e4:	d63f0060 	blr	x3
   835e8:	7900afa0 	strh	w0, [x29, #86]
   835ec:	79c0afa0 	ldrsh	w0, [x29, #86]
   835f0:	7100001f 	cmp	w0, #0x0
   835f4:	54000081 	b.ne	83604 <CEcoInterfaceBus1Factory_42757331_Alloc+0xb0>  // b.any
   835f8:	f94027a0 	ldr	x0, [x29, #72]
   835fc:	f100001f 	cmp	x0, #0x0
   83600:	54000061 	b.ne	8360c <CEcoInterfaceBus1Factory_42757331_Alloc+0xb8>  // b.any
   83604:	12800000 	mov	w0, #0xffffffff            	// #-1
   83608:	1400000f 	b	83644 <CEcoInterfaceBus1Factory_42757331_Alloc+0xf0>
   8360c:	f94027a0 	ldr	x0, [x29, #72]
   83610:	f9400000 	ldr	x0, [x0]
   83614:	f9400003 	ldr	x3, [x0]
   83618:	f94027a0 	ldr	x0, [x29, #72]
   8361c:	f9400fa2 	ldr	x2, [x29, #24]
   83620:	f94013a1 	ldr	x1, [x29, #32]
   83624:	d63f0060 	blr	x3
   83628:	7900afa0 	strh	w0, [x29, #86]
   8362c:	f94027a0 	ldr	x0, [x29, #72]
   83630:	f9400000 	ldr	x0, [x0]
   83634:	f9400801 	ldr	x1, [x0, #16]
   83638:	f94027a0 	ldr	x0, [x29, #72]
   8363c:	d63f0020 	blr	x1
   83640:	79c0afa0 	ldrsh	w0, [x29, #86]
   83644:	a8c67bfd 	ldp	x29, x30, [sp], #96
   83648:	d65f03c0 	ret

000000000008364c <CEcoInterfaceBus1Factory_42757331_get_Name>:
   8364c:	d10083ff 	sub	sp, sp, #0x20
   83650:	f90007e0 	str	x0, [sp, #8]
   83654:	f94007e0 	ldr	x0, [sp, #8]
   83658:	f9000fe0 	str	x0, [sp, #24]
   8365c:	f94007e0 	ldr	x0, [sp, #8]
   83660:	f100001f 	cmp	x0, #0x0
   83664:	54000061 	b.ne	83670 <CEcoInterfaceBus1Factory_42757331_get_Name+0x24>  // b.any
   83668:	d2800000 	mov	x0, #0x0                   	// #0
   8366c:	14000003 	b	83678 <CEcoInterfaceBus1Factory_42757331_get_Name+0x2c>
   83670:	f9400fe0 	ldr	x0, [sp, #24]
   83674:	91008000 	add	x0, x0, #0x20
   83678:	910083ff 	add	sp, sp, #0x20
   8367c:	d65f03c0 	ret

0000000000083680 <CEcoInterfaceBus1Factory_42757331_get_Version>:
   83680:	d10083ff 	sub	sp, sp, #0x20
   83684:	f90007e0 	str	x0, [sp, #8]
   83688:	f94007e0 	ldr	x0, [sp, #8]
   8368c:	f9000fe0 	str	x0, [sp, #24]
   83690:	f94007e0 	ldr	x0, [sp, #8]
   83694:	f100001f 	cmp	x0, #0x0
   83698:	54000061 	b.ne	836a4 <CEcoInterfaceBus1Factory_42757331_get_Version+0x24>  // b.any
   8369c:	d2800000 	mov	x0, #0x0                   	// #0
   836a0:	14000003 	b	836ac <CEcoInterfaceBus1Factory_42757331_get_Version+0x2c>
   836a4:	f9400fe0 	ldr	x0, [sp, #24]
   836a8:	91018000 	add	x0, x0, #0x60
   836ac:	910083ff 	add	sp, sp, #0x20
   836b0:	d65f03c0 	ret

00000000000836b4 <CEcoInterfaceBus1Factory_42757331_get_Manufacturer>:
   836b4:	d10083ff 	sub	sp, sp, #0x20
   836b8:	f90007e0 	str	x0, [sp, #8]
   836bc:	f94007e0 	ldr	x0, [sp, #8]
   836c0:	f9000fe0 	str	x0, [sp, #24]
   836c4:	f94007e0 	ldr	x0, [sp, #8]
   836c8:	f100001f 	cmp	x0, #0x0
   836cc:	54000061 	b.ne	836d8 <CEcoInterfaceBus1Factory_42757331_get_Manufacturer+0x24>  // b.any
   836d0:	d2800000 	mov	x0, #0x0                   	// #0
   836d4:	14000003 	b	836e0 <CEcoInterfaceBus1Factory_42757331_get_Manufacturer+0x2c>
   836d8:	f9400fe0 	ldr	x0, [sp, #24]
   836dc:	9101c000 	add	x0, x0, #0x70
   836e0:	910083ff 	add	sp, sp, #0x20
   836e4:	d65f03c0 	ret

00000000000836e8 <CEcoInterfaceBus1_42757331_IEcoSystem1_QueryInterface>:
   836e8:	a9bc7bfd 	stp	x29, x30, [sp, #-64]!
   836ec:	910003fd 	mov	x29, sp
   836f0:	f90017a0 	str	x0, [x29, #40]
   836f4:	f90013a1 	str	x1, [x29, #32]
   836f8:	f9000fa2 	str	x2, [x29, #24]
   836fc:	f94017a0 	ldr	x0, [x29, #40]
   83700:	f9001fa0 	str	x0, [x29, #56]
   83704:	f94017a0 	ldr	x0, [x29, #40]
   83708:	f100001f 	cmp	x0, #0x0
   8370c:	54000080 	b.eq	8371c <CEcoInterfaceBus1_42757331_IEcoSystem1_QueryInterface+0x34>  // b.none
   83710:	f9400fa0 	ldr	x0, [x29, #24]
   83714:	f100001f 	cmp	x0, #0x0
   83718:	54000061 	b.ne	83724 <CEcoInterfaceBus1_42757331_IEcoSystem1_QueryInterface+0x3c>  // b.any
   8371c:	12800000 	mov	w0, #0xffffffff            	// #-1
   83720:	1400003c 	b	83810 <CEcoInterfaceBus1_42757331_IEcoSystem1_QueryInterface+0x128>
   83724:	f0000000 	adrp	x0, 86000 <g_xCEcoFactoryList1_42757331+0x100>
   83728:	9112c000 	add	x0, x0, #0x4b0
   8372c:	aa0003e1 	mov	x1, x0
   83730:	f94013a0 	ldr	x0, [x29, #32]
   83734:	97fffeff 	bl	83330 <IsEqualUGUID_00000000000000000000000042757331>
   83738:	12001c00 	and	w0, w0, #0xff
   8373c:	7100001f 	cmp	w0, #0x0
   83740:	540001a0 	b.eq	83774 <CEcoInterfaceBus1_42757331_IEcoSystem1_QueryInterface+0x8c>  // b.none
   83744:	f9401fa0 	ldr	x0, [x29, #56]
   83748:	f9400c01 	ldr	x1, [x0, #24]
   8374c:	f9400fa0 	ldr	x0, [x29, #24]
   83750:	f9000001 	str	x1, [x0]
   83754:	f9401fa0 	ldr	x0, [x29, #56]
   83758:	f9400c00 	ldr	x0, [x0, #24]
   8375c:	f9400000 	ldr	x0, [x0]
   83760:	f9400401 	ldr	x1, [x0, #8]
   83764:	f9401fa0 	ldr	x0, [x29, #56]
   83768:	f9400c00 	ldr	x0, [x0, #24]
   8376c:	d63f0020 	blr	x1
   83770:	14000027 	b	8380c <CEcoInterfaceBus1_42757331_IEcoSystem1_QueryInterface+0x124>
   83774:	f0000000 	adrp	x0, 86000 <g_xCEcoFactoryList1_42757331+0x100>
   83778:	91126000 	add	x0, x0, #0x498
   8377c:	aa0003e1 	mov	x1, x0
   83780:	f94013a0 	ldr	x0, [x29, #32]
   83784:	97fffeeb 	bl	83330 <IsEqualUGUID_00000000000000000000000042757331>
   83788:	12001c00 	and	w0, w0, #0xff
   8378c:	7100001f 	cmp	w0, #0x0
   83790:	54000140 	b.eq	837b8 <CEcoInterfaceBus1_42757331_IEcoSystem1_QueryInterface+0xd0>  // b.none
   83794:	f9401fa1 	ldr	x1, [x29, #56]
   83798:	f9400fa0 	ldr	x0, [x29, #24]
   8379c:	f9000001 	str	x1, [x0]
   837a0:	f9401fa0 	ldr	x0, [x29, #56]
   837a4:	f9400000 	ldr	x0, [x0]
   837a8:	f9400401 	ldr	x1, [x0, #8]
   837ac:	f9401fa0 	ldr	x0, [x29, #56]
   837b0:	d63f0020 	blr	x1
   837b4:	14000016 	b	8380c <CEcoInterfaceBus1_42757331_IEcoSystem1_QueryInterface+0x124>
   837b8:	f0000000 	adrp	x0, 86000 <g_xCEcoFactoryList1_42757331+0x100>
   837bc:	9111a000 	add	x0, x0, #0x468
   837c0:	aa0003e1 	mov	x1, x0
   837c4:	f94013a0 	ldr	x0, [x29, #32]
   837c8:	97fffeda 	bl	83330 <IsEqualUGUID_00000000000000000000000042757331>
   837cc:	12001c00 	and	w0, w0, #0xff
   837d0:	7100001f 	cmp	w0, #0x0
   837d4:	54000140 	b.eq	837fc <CEcoInterfaceBus1_42757331_IEcoSystem1_QueryInterface+0x114>  // b.none
   837d8:	f9401fa1 	ldr	x1, [x29, #56]
   837dc:	f9400fa0 	ldr	x0, [x29, #24]
   837e0:	f9000001 	str	x1, [x0]
   837e4:	f9401fa0 	ldr	x0, [x29, #56]
   837e8:	f9400000 	ldr	x0, [x0]
   837ec:	f9400401 	ldr	x1, [x0, #8]
   837f0:	f9401fa0 	ldr	x0, [x29, #56]
   837f4:	d63f0020 	blr	x1
   837f8:	14000005 	b	8380c <CEcoInterfaceBus1_42757331_IEcoSystem1_QueryInterface+0x124>
   837fc:	f9400fa0 	ldr	x0, [x29, #24]
   83800:	f900001f 	str	xzr, [x0]
   83804:	12800000 	mov	w0, #0xffffffff            	// #-1
   83808:	14000002 	b	83810 <CEcoInterfaceBus1_42757331_IEcoSystem1_QueryInterface+0x128>
   8380c:	52800000 	mov	w0, #0x0                   	// #0
   83810:	a8c47bfd 	ldp	x29, x30, [sp], #64
   83814:	d65f03c0 	ret

0000000000083818 <CEcoInterfaceBus1_42757331_IEcoSystem1_AddRef>:
   83818:	d10083ff 	sub	sp, sp, #0x20
   8381c:	f90007e0 	str	x0, [sp, #8]
   83820:	f94007e0 	ldr	x0, [sp, #8]
   83824:	f9000fe0 	str	x0, [sp, #24]
   83828:	f94007e0 	ldr	x0, [sp, #8]
   8382c:	f100001f 	cmp	x0, #0x0
   83830:	54000061 	b.ne	8383c <CEcoInterfaceBus1_42757331_IEcoSystem1_AddRef+0x24>  // b.any
   83834:	12800000 	mov	w0, #0xffffffff            	// #-1
   83838:	14000008 	b	83858 <CEcoInterfaceBus1_42757331_IEcoSystem1_AddRef+0x40>
   8383c:	f9400fe0 	ldr	x0, [sp, #24]
   83840:	b9400800 	ldr	w0, [x0, #8]
   83844:	11000401 	add	w1, w0, #0x1
   83848:	f9400fe0 	ldr	x0, [sp, #24]
   8384c:	b9000801 	str	w1, [x0, #8]
   83850:	f9400fe0 	ldr	x0, [sp, #24]
   83854:	b9400800 	ldr	w0, [x0, #8]
   83858:	910083ff 	add	sp, sp, #0x20
   8385c:	d65f03c0 	ret

0000000000083860 <CEcoInterfaceBus1_42757331_IEcoSystem1_Release>:
   83860:	d10083ff 	sub	sp, sp, #0x20
   83864:	f90007e0 	str	x0, [sp, #8]
   83868:	f94007e0 	ldr	x0, [sp, #8]
   8386c:	f9000fe0 	str	x0, [sp, #24]
   83870:	f94007e0 	ldr	x0, [sp, #8]
   83874:	f100001f 	cmp	x0, #0x0
   83878:	54000061 	b.ne	83884 <CEcoInterfaceBus1_42757331_IEcoSystem1_Release+0x24>  // b.any
   8387c:	12800000 	mov	w0, #0xffffffff            	// #-1
   83880:	1400000e 	b	838b8 <CEcoInterfaceBus1_42757331_IEcoSystem1_Release+0x58>
   83884:	f9400fe0 	ldr	x0, [sp, #24]
   83888:	b9400800 	ldr	w0, [x0, #8]
   8388c:	51000401 	sub	w1, w0, #0x1
   83890:	f9400fe0 	ldr	x0, [sp, #24]
   83894:	b9000801 	str	w1, [x0, #8]
   83898:	f9400fe0 	ldr	x0, [sp, #24]
   8389c:	b9400800 	ldr	w0, [x0, #8]
   838a0:	7100001f 	cmp	w0, #0x0
   838a4:	54000061 	b.ne	838b0 <CEcoInterfaceBus1_42757331_IEcoSystem1_Release+0x50>  // b.any
   838a8:	52800000 	mov	w0, #0x0                   	// #0
   838ac:	14000003 	b	838b8 <CEcoInterfaceBus1_42757331_IEcoSystem1_Release+0x58>
   838b0:	f9400fe0 	ldr	x0, [sp, #24]
   838b4:	b9400800 	ldr	w0, [x0, #8]
   838b8:	910083ff 	add	sp, sp, #0x20
   838bc:	d65f03c0 	ret

00000000000838c0 <CEcoInterfaceBus1_42757331_IEcoSystem1_set_Data>:
   838c0:	d10083ff 	sub	sp, sp, #0x20
   838c4:	f90007e0 	str	x0, [sp, #8]
   838c8:	f90003e1 	str	x1, [sp]
   838cc:	f94007e0 	ldr	x0, [sp, #8]
   838d0:	f9000fe0 	str	x0, [sp, #24]
   838d4:	f94007e0 	ldr	x0, [sp, #8]
   838d8:	f100001f 	cmp	x0, #0x0
   838dc:	540000c0 	b.eq	838f4 <CEcoInterfaceBus1_42757331_IEcoSystem1_set_Data+0x34>  // b.none
   838e0:	f9400fe0 	ldr	x0, [sp, #24]
   838e4:	f94003e1 	ldr	x1, [sp]
   838e8:	f9000801 	str	x1, [x0, #16]
   838ec:	d503201f 	nop
   838f0:	14000002 	b	838f8 <CEcoInterfaceBus1_42757331_IEcoSystem1_set_Data+0x38>
   838f4:	d503201f 	nop
   838f8:	910083ff 	add	sp, sp, #0x20
   838fc:	d65f03c0 	ret

0000000000083900 <CEcoInterfaceBus1_42757331_IEcoSystem1_get_Data>:
   83900:	d10083ff 	sub	sp, sp, #0x20
   83904:	f90007e0 	str	x0, [sp, #8]
   83908:	f94007e0 	ldr	x0, [sp, #8]
   8390c:	f9000fe0 	str	x0, [sp, #24]
   83910:	f94007e0 	ldr	x0, [sp, #8]
   83914:	f100001f 	cmp	x0, #0x0
   83918:	54000061 	b.ne	83924 <CEcoInterfaceBus1_42757331_IEcoSystem1_get_Data+0x24>  // b.any
   8391c:	d2800000 	mov	x0, #0x0                   	// #0
   83920:	14000003 	b	8392c <CEcoInterfaceBus1_42757331_IEcoSystem1_get_Data+0x2c>
   83924:	f9400fe0 	ldr	x0, [sp, #24]
   83928:	f9400800 	ldr	x0, [x0, #16]
   8392c:	910083ff 	add	sp, sp, #0x20
   83930:	d65f03c0 	ret

0000000000083934 <CEcoInterfaceBus1_42757331_QueryInterface>:
   83934:	a9bc7bfd 	stp	x29, x30, [sp, #-64]!
   83938:	910003fd 	mov	x29, sp
   8393c:	f90017a0 	str	x0, [x29, #40]
   83940:	f90013a1 	str	x1, [x29, #32]
   83944:	f9000fa2 	str	x2, [x29, #24]
   83948:	f94017a0 	ldr	x0, [x29, #40]
   8394c:	f9001fa0 	str	x0, [x29, #56]
   83950:	f94017a0 	ldr	x0, [x29, #40]
   83954:	f100001f 	cmp	x0, #0x0
   83958:	54000080 	b.eq	83968 <CEcoInterfaceBus1_42757331_QueryInterface+0x34>  // b.none
   8395c:	f9400fa0 	ldr	x0, [x29, #24]
   83960:	f100001f 	cmp	x0, #0x0
   83964:	54000061 	b.ne	83970 <CEcoInterfaceBus1_42757331_QueryInterface+0x3c>  // b.any
   83968:	12800000 	mov	w0, #0xffffffff            	// #-1
   8396c:	1400003a 	b	83a54 <CEcoInterfaceBus1_42757331_QueryInterface+0x120>
   83970:	f0000000 	adrp	x0, 86000 <g_xCEcoFactoryList1_42757331+0x100>
   83974:	9112c000 	add	x0, x0, #0x4b0
   83978:	aa0003e1 	mov	x1, x0
   8397c:	f94013a0 	ldr	x0, [x29, #32]
   83980:	97fffe6c 	bl	83330 <IsEqualUGUID_00000000000000000000000042757331>
   83984:	12001c00 	and	w0, w0, #0xff
   83988:	7100001f 	cmp	w0, #0x0
   8398c:	54000140 	b.eq	839b4 <CEcoInterfaceBus1_42757331_QueryInterface+0x80>  // b.none
   83990:	f9401fa1 	ldr	x1, [x29, #56]
   83994:	f9400fa0 	ldr	x0, [x29, #24]
   83998:	f9000001 	str	x1, [x0]
   8399c:	f9401fa0 	ldr	x0, [x29, #56]
   839a0:	f9400000 	ldr	x0, [x0]
   839a4:	f9400401 	ldr	x1, [x0, #8]
   839a8:	f9401fa0 	ldr	x0, [x29, #56]
   839ac:	d63f0020 	blr	x1
   839b0:	14000028 	b	83a50 <CEcoInterfaceBus1_42757331_QueryInterface+0x11c>
   839b4:	f0000000 	adrp	x0, 86000 <g_xCEcoFactoryList1_42757331+0x100>
   839b8:	9113e000 	add	x0, x0, #0x4f8
   839bc:	aa0003e1 	mov	x1, x0
   839c0:	f94013a0 	ldr	x0, [x29, #32]
   839c4:	97fffe5b 	bl	83330 <IsEqualUGUID_00000000000000000000000042757331>
   839c8:	12001c00 	and	w0, w0, #0xff
   839cc:	7100001f 	cmp	w0, #0x0
   839d0:	54000160 	b.eq	839fc <CEcoInterfaceBus1_42757331_QueryInterface+0xc8>  // b.none
   839d4:	f9401fa0 	ldr	x0, [x29, #56]
   839d8:	91002001 	add	x1, x0, #0x8
   839dc:	f9400fa0 	ldr	x0, [x29, #24]
   839e0:	f9000001 	str	x1, [x0]
   839e4:	f9401fa0 	ldr	x0, [x29, #56]
   839e8:	f9400000 	ldr	x0, [x0]
   839ec:	f9400401 	ldr	x1, [x0, #8]
   839f0:	f9401fa0 	ldr	x0, [x29, #56]
   839f4:	d63f0020 	blr	x1
   839f8:	14000016 	b	83a50 <CEcoInterfaceBus1_42757331_QueryInterface+0x11c>
   839fc:	f0000000 	adrp	x0, 86000 <g_xCEcoFactoryList1_42757331+0x100>
   83a00:	9111a000 	add	x0, x0, #0x468
   83a04:	aa0003e1 	mov	x1, x0
   83a08:	f94013a0 	ldr	x0, [x29, #32]
   83a0c:	97fffe49 	bl	83330 <IsEqualUGUID_00000000000000000000000042757331>
   83a10:	12001c00 	and	w0, w0, #0xff
   83a14:	7100001f 	cmp	w0, #0x0
   83a18:	54000140 	b.eq	83a40 <CEcoInterfaceBus1_42757331_QueryInterface+0x10c>  // b.none
   83a1c:	f9401fa1 	ldr	x1, [x29, #56]
   83a20:	f9400fa0 	ldr	x0, [x29, #24]
   83a24:	f9000001 	str	x1, [x0]
   83a28:	f9401fa0 	ldr	x0, [x29, #56]
   83a2c:	f9400000 	ldr	x0, [x0]
   83a30:	f9400401 	ldr	x1, [x0, #8]
   83a34:	f9401fa0 	ldr	x0, [x29, #56]
   83a38:	d63f0020 	blr	x1
   83a3c:	14000005 	b	83a50 <CEcoInterfaceBus1_42757331_QueryInterface+0x11c>
   83a40:	f9400fa0 	ldr	x0, [x29, #24]
   83a44:	f900001f 	str	xzr, [x0]
   83a48:	12800000 	mov	w0, #0xffffffff            	// #-1
   83a4c:	14000002 	b	83a54 <CEcoInterfaceBus1_42757331_QueryInterface+0x120>
   83a50:	52800000 	mov	w0, #0x0                   	// #0
   83a54:	a8c47bfd 	ldp	x29, x30, [sp], #64
   83a58:	d65f03c0 	ret

0000000000083a5c <CEcoInterfaceBus1_42757331_AddRef>:
   83a5c:	d10083ff 	sub	sp, sp, #0x20
   83a60:	f90007e0 	str	x0, [sp, #8]
   83a64:	f94007e0 	ldr	x0, [sp, #8]
   83a68:	f9000fe0 	str	x0, [sp, #24]
   83a6c:	f94007e0 	ldr	x0, [sp, #8]
   83a70:	f100001f 	cmp	x0, #0x0
   83a74:	54000061 	b.ne	83a80 <CEcoInterfaceBus1_42757331_AddRef+0x24>  // b.any
   83a78:	12800000 	mov	w0, #0xffffffff            	// #-1
   83a7c:	14000008 	b	83a9c <CEcoInterfaceBus1_42757331_AddRef+0x40>
   83a80:	f9400fe0 	ldr	x0, [sp, #24]
   83a84:	b9401000 	ldr	w0, [x0, #16]
   83a88:	11000401 	add	w1, w0, #0x1
   83a8c:	f9400fe0 	ldr	x0, [sp, #24]
   83a90:	b9001001 	str	w1, [x0, #16]
   83a94:	f9400fe0 	ldr	x0, [sp, #24]
   83a98:	b9401000 	ldr	w0, [x0, #16]
   83a9c:	910083ff 	add	sp, sp, #0x20
   83aa0:	d65f03c0 	ret

0000000000083aa4 <CEcoInterfaceBus1_42757331_Release>:
   83aa4:	a9bd7bfd 	stp	x29, x30, [sp, #-48]!
   83aa8:	910003fd 	mov	x29, sp
   83aac:	f9000fa0 	str	x0, [x29, #24]
   83ab0:	f9400fa0 	ldr	x0, [x29, #24]
   83ab4:	f90017a0 	str	x0, [x29, #40]
   83ab8:	f9400fa0 	ldr	x0, [x29, #24]
   83abc:	f100001f 	cmp	x0, #0x0
   83ac0:	54000061 	b.ne	83acc <CEcoInterfaceBus1_42757331_Release+0x28>  // b.any
   83ac4:	12800000 	mov	w0, #0xffffffff            	// #-1
   83ac8:	14000010 	b	83b08 <CEcoInterfaceBus1_42757331_Release+0x64>
   83acc:	f94017a0 	ldr	x0, [x29, #40]
   83ad0:	b9401000 	ldr	w0, [x0, #16]
   83ad4:	51000401 	sub	w1, w0, #0x1
   83ad8:	f94017a0 	ldr	x0, [x29, #40]
   83adc:	b9001001 	str	w1, [x0, #16]
   83ae0:	f94017a0 	ldr	x0, [x29, #40]
   83ae4:	b9401000 	ldr	w0, [x0, #16]
   83ae8:	7100001f 	cmp	w0, #0x0
   83aec:	540000a1 	b.ne	83b00 <CEcoInterfaceBus1_42757331_Release+0x5c>  // b.any
   83af0:	f9400fa0 	ldr	x0, [x29, #24]
   83af4:	94000249 	bl	84418 <deleteCEcoInterfaceBus1_42757331>
   83af8:	52800000 	mov	w0, #0x0                   	// #0
   83afc:	14000003 	b	83b08 <CEcoInterfaceBus1_42757331_Release+0x64>
   83b00:	f94017a0 	ldr	x0, [x29, #40]
   83b04:	b9401000 	ldr	w0, [x0, #16]
   83b08:	a8c37bfd 	ldp	x29, x30, [sp], #48
   83b0c:	d65f03c0 	ret

0000000000083b10 <CEcoInterfaceBus1_42757331_Init>:
   83b10:	d10083ff 	sub	sp, sp, #0x20
   83b14:	f90007e0 	str	x0, [sp, #8]
   83b18:	f94007e0 	ldr	x0, [sp, #8]
   83b1c:	f9000fe0 	str	x0, [sp, #24]
   83b20:	f94007e0 	ldr	x0, [sp, #8]
   83b24:	f100001f 	cmp	x0, #0x0
   83b28:	54000061 	b.ne	83b34 <CEcoInterfaceBus1_42757331_Init+0x24>  // b.any
   83b2c:	12800000 	mov	w0, #0xffffffff            	// #-1
   83b30:	14000002 	b	83b38 <CEcoInterfaceBus1_42757331_Init+0x28>
   83b34:	52800000 	mov	w0, #0x0                   	// #0
   83b38:	910083ff 	add	sp, sp, #0x20
   83b3c:	d65f03c0 	ret

0000000000083b40 <CEcoInterfaceBus1_42757331_InitWith>:
   83b40:	d100c3ff 	sub	sp, sp, #0x30
   83b44:	f9000fe0 	str	x0, [sp, #24]
   83b48:	f9000be1 	str	x1, [sp, #16]
   83b4c:	b9000fe2 	str	w2, [sp, #12]
   83b50:	f9400fe0 	ldr	x0, [sp, #24]
   83b54:	f90017e0 	str	x0, [sp, #40]
   83b58:	f9400fe0 	ldr	x0, [sp, #24]
   83b5c:	f100001f 	cmp	x0, #0x0
   83b60:	54000061 	b.ne	83b6c <CEcoInterfaceBus1_42757331_InitWith+0x2c>  // b.any
   83b64:	12800000 	mov	w0, #0xffffffff            	// #-1
   83b68:	14000002 	b	83b70 <CEcoInterfaceBus1_42757331_InitWith+0x30>
   83b6c:	52800000 	mov	w0, #0x0                   	// #0
   83b70:	9100c3ff 	add	sp, sp, #0x30
   83b74:	d65f03c0 	ret

0000000000083b78 <CEcoInterfaceBus1_42757331_RegisterComponent>:
   83b78:	a9bb7bfd 	stp	x29, x30, [sp, #-80]!
   83b7c:	910003fd 	mov	x29, sp
   83b80:	f90017a0 	str	x0, [x29, #40]
   83b84:	f90013a1 	str	x1, [x29, #32]
   83b88:	f9000fa2 	str	x2, [x29, #24]
   83b8c:	f94017a0 	ldr	x0, [x29, #40]
   83b90:	f9001ba0 	str	x0, [x29, #48]
   83b94:	f90027bf 	str	xzr, [x29, #72]
   83b98:	f90023bf 	str	xzr, [x29, #64]
   83b9c:	b9003fbf 	str	wzr, [x29, #60]
   83ba0:	12800000 	mov	w0, #0xffffffff            	// #-1
   83ba4:	790077a0 	strh	w0, [x29, #58]
   83ba8:	f94017a0 	ldr	x0, [x29, #40]
   83bac:	f100001f 	cmp	x0, #0x0
   83bb0:	54000061 	b.ne	83bbc <CEcoInterfaceBus1_42757331_RegisterComponent+0x44>  // b.any
   83bb4:	12800000 	mov	w0, #0xffffffff            	// #-1
   83bb8:	14000076 	b	83d90 <CEcoInterfaceBus1_42757331_RegisterComponent+0x218>
   83bbc:	f9401ba0 	ldr	x0, [x29, #48]
   83bc0:	f9401000 	ldr	x0, [x0, #32]
   83bc4:	f90027a0 	str	x0, [x29, #72]
   83bc8:	f9401ba0 	ldr	x0, [x29, #48]
   83bcc:	f9401000 	ldr	x0, [x0, #32]
   83bd0:	f90023a0 	str	x0, [x29, #64]
   83bd4:	f94027a0 	ldr	x0, [x29, #72]
   83bd8:	f9401400 	ldr	x0, [x0, #40]
   83bdc:	f100001f 	cmp	x0, #0x0
   83be0:	54000341 	b.ne	83c48 <CEcoInterfaceBus1_42757331_RegisterComponent+0xd0>  // b.any
   83be4:	f94027a0 	ldr	x0, [x29, #72]
   83be8:	f94013a1 	ldr	x1, [x29, #32]
   83bec:	f9001001 	str	x1, [x0, #32]
   83bf0:	f94027a0 	ldr	x0, [x29, #72]
   83bf4:	f9400fa1 	ldr	x1, [x29, #24]
   83bf8:	f9001401 	str	x1, [x0, #40]
   83bfc:	f94027a0 	ldr	x0, [x29, #72]
   83c00:	d0000001 	adrp	x1, 85000 <CEcoIPCCMailbox1_QueryInterface+0x180>
   83c04:	91302021 	add	x1, x1, #0xc08
   83c08:	f9000001 	str	x1, [x0]
   83c0c:	f94027a0 	ldr	x0, [x29, #72]
   83c10:	52800021 	mov	w1, #0x1                   	// #1
   83c14:	b9000801 	str	w1, [x0, #8]
   83c18:	f9401ba1 	ldr	x1, [x29, #48]
   83c1c:	f94027a0 	ldr	x0, [x29, #72]
   83c20:	f9000c01 	str	x1, [x0, #24]
   83c24:	f94023a1 	ldr	x1, [x29, #64]
   83c28:	f94027a0 	ldr	x0, [x29, #72]
   83c2c:	eb00003f 	cmp	x1, x0
   83c30:	54000080 	b.eq	83c40 <CEcoInterfaceBus1_42757331_RegisterComponent+0xc8>  // b.none
   83c34:	f94023a0 	ldr	x0, [x29, #64]
   83c38:	f94027a1 	ldr	x1, [x29, #72]
   83c3c:	f9001801 	str	x1, [x0, #48]
   83c40:	790077bf 	strh	wzr, [x29, #58]
   83c44:	14000052 	b	83d8c <CEcoInterfaceBus1_42757331_RegisterComponent+0x214>
   83c48:	f94027a0 	ldr	x0, [x29, #72]
   83c4c:	f90023a0 	str	x0, [x29, #64]
   83c50:	b9403fa0 	ldr	w0, [x29, #60]
   83c54:	11000400 	add	w0, w0, #0x1
   83c58:	b9003fa0 	str	w0, [x29, #60]
   83c5c:	b9403fa0 	ldr	w0, [x29, #60]
   83c60:	7100101f 	cmp	w0, #0x4
   83c64:	54000128 	b.hi	83c88 <CEcoInterfaceBus1_42757331_RegisterComponent+0x110>  // b.pmore
   83c68:	f9401ba0 	ldr	x0, [x29, #48]
   83c6c:	f9401001 	ldr	x1, [x0, #32]
   83c70:	b9403fa2 	ldr	w2, [x29, #60]
   83c74:	d2800700 	mov	x0, #0x38                  	// #56
   83c78:	9b007c40 	mul	x0, x2, x0
   83c7c:	8b000020 	add	x0, x1, x0
   83c80:	f90027a0 	str	x0, [x29, #72]
   83c84:	1400003f 	b	83d80 <CEcoInterfaceBus1_42757331_RegisterComponent+0x208>
   83c88:	f94027a0 	ldr	x0, [x29, #72]
   83c8c:	f9401800 	ldr	x0, [x0, #48]
   83c90:	f100001f 	cmp	x0, #0x0
   83c94:	540000a0 	b.eq	83ca8 <CEcoInterfaceBus1_42757331_RegisterComponent+0x130>  // b.none
   83c98:	f94027a0 	ldr	x0, [x29, #72]
   83c9c:	f9401800 	ldr	x0, [x0, #48]
   83ca0:	f90027a0 	str	x0, [x29, #72]
   83ca4:	14000037 	b	83d80 <CEcoInterfaceBus1_42757331_RegisterComponent+0x208>
   83ca8:	f9401ba0 	ldr	x0, [x29, #48]
   83cac:	3940e000 	ldrb	w0, [x0, #56]
   83cb0:	7100001f 	cmp	w0, #0x0
   83cb4:	54000660 	b.eq	83d80 <CEcoInterfaceBus1_42757331_RegisterComponent+0x208>  // b.none
   83cb8:	79c077a0 	ldrsh	w0, [x29, #58]
   83cbc:	7100001f 	cmp	w0, #0x0
   83cc0:	54000600 	b.eq	83d80 <CEcoInterfaceBus1_42757331_RegisterComponent+0x208>  // b.none
   83cc4:	f9401ba0 	ldr	x0, [x29, #48]
   83cc8:	f9401400 	ldr	x0, [x0, #40]
   83ccc:	f100001f 	cmp	x0, #0x0
   83cd0:	54000321 	b.ne	83d34 <CEcoInterfaceBus1_42757331_RegisterComponent+0x1bc>  // b.any
   83cd4:	f94017a0 	ldr	x0, [x29, #40]
   83cd8:	f9400000 	ldr	x0, [x0]
   83cdc:	f9401c05 	ldr	x5, [x0, #56]
   83ce0:	f9401ba0 	ldr	x0, [x29, #48]
   83ce4:	f9401801 	ldr	x1, [x0, #48]
   83ce8:	f9401ba0 	ldr	x0, [x29, #48]
   83cec:	9100a002 	add	x2, x0, #0x28
   83cf0:	f0000000 	adrp	x0, 86000 <g_xCEcoFactoryList1_42757331+0x100>
   83cf4:	91132000 	add	x0, x0, #0x4c8
   83cf8:	aa0203e4 	mov	x4, x2
   83cfc:	aa0003e3 	mov	x3, x0
   83d00:	d2800002 	mov	x2, #0x0                   	// #0
   83d04:	f94017a0 	ldr	x0, [x29, #40]
   83d08:	d63f00a0 	blr	x5
   83d0c:	790077a0 	strh	w0, [x29, #58]
   83d10:	79c077a0 	ldrsh	w0, [x29, #58]
   83d14:	7100001f 	cmp	w0, #0x0
   83d18:	540000a1 	b.ne	83d2c <CEcoInterfaceBus1_42757331_RegisterComponent+0x1b4>  // b.any
   83d1c:	f9401ba0 	ldr	x0, [x29, #48]
   83d20:	f9401400 	ldr	x0, [x0, #40]
   83d24:	f100001f 	cmp	x0, #0x0
   83d28:	54000061 	b.ne	83d34 <CEcoInterfaceBus1_42757331_RegisterComponent+0x1bc>  // b.any
   83d2c:	79c077a0 	ldrsh	w0, [x29, #58]
   83d30:	14000018 	b	83d90 <CEcoInterfaceBus1_42757331_RegisterComponent+0x218>
   83d34:	f9401ba0 	ldr	x0, [x29, #48]
   83d38:	f9401400 	ldr	x0, [x0, #40]
   83d3c:	f9400000 	ldr	x0, [x0]
   83d40:	f9400c02 	ldr	x2, [x0, #24]
   83d44:	f9401ba0 	ldr	x0, [x29, #48]
   83d48:	f9401400 	ldr	x0, [x0, #40]
   83d4c:	52800701 	mov	w1, #0x38                  	// #56
   83d50:	d63f0040 	blr	x2
   83d54:	f90027a0 	str	x0, [x29, #72]
   83d58:	f94027a0 	ldr	x0, [x29, #72]
   83d5c:	f100001f 	cmp	x0, #0x0
   83d60:	54000061 	b.ne	83d6c <CEcoInterfaceBus1_42757331_RegisterComponent+0x1f4>  // b.any
   83d64:	79c077a0 	ldrsh	w0, [x29, #58]
   83d68:	1400000a 	b	83d90 <CEcoInterfaceBus1_42757331_RegisterComponent+0x218>
   83d6c:	f94027a0 	ldr	x0, [x29, #72]
   83d70:	f900141f 	str	xzr, [x0, #40]
   83d74:	f94027a0 	ldr	x0, [x29, #72]
   83d78:	f900181f 	str	xzr, [x0, #48]
   83d7c:	d503201f 	nop
   83d80:	f94027a0 	ldr	x0, [x29, #72]
   83d84:	f100001f 	cmp	x0, #0x0
   83d88:	54fff261 	b.ne	83bd4 <CEcoInterfaceBus1_42757331_RegisterComponent+0x5c>  // b.any
   83d8c:	79c077a0 	ldrsh	w0, [x29, #58]
   83d90:	a8c57bfd 	ldp	x29, x30, [sp], #80
   83d94:	d65f03c0 	ret

0000000000083d98 <CEcoInterfaceBus1_42757331_UnRegisterComponent>:
   83d98:	a9bb7bfd 	stp	x29, x30, [sp, #-80]!
   83d9c:	910003fd 	mov	x29, sp
   83da0:	f9000fa0 	str	x0, [x29, #24]
   83da4:	f9000ba1 	str	x1, [x29, #16]
   83da8:	f9400fa0 	ldr	x0, [x29, #24]
   83dac:	f9001fa0 	str	x0, [x29, #56]
   83db0:	f9001bbf 	str	xzr, [x29, #48]
   83db4:	f90027bf 	str	xzr, [x29, #72]
   83db8:	f90017bf 	str	xzr, [x29, #40]
   83dbc:	12800000 	mov	w0, #0xffffffff            	// #-1
   83dc0:	79008fa0 	strh	w0, [x29, #70]
   83dc4:	f9400fa0 	ldr	x0, [x29, #24]
   83dc8:	f100001f 	cmp	x0, #0x0
   83dcc:	54000061 	b.ne	83dd8 <CEcoInterfaceBus1_42757331_UnRegisterComponent+0x40>  // b.any
   83dd0:	12800000 	mov	w0, #0xffffffff            	// #-1
   83dd4:	14000022 	b	83e5c <CEcoInterfaceBus1_42757331_UnRegisterComponent+0xc4>
   83dd8:	f9401fa0 	ldr	x0, [x29, #56]
   83ddc:	f9401000 	ldr	x0, [x0, #32]
   83de0:	f90027a0 	str	x0, [x29, #72]
   83de4:	f9401fa0 	ldr	x0, [x29, #56]
   83de8:	f9401000 	ldr	x0, [x0, #32]
   83dec:	f90017a0 	str	x0, [x29, #40]
   83df0:	f94027a0 	ldr	x0, [x29, #72]
   83df4:	f9401000 	ldr	x0, [x0, #32]
   83df8:	aa0003e1 	mov	x1, x0
   83dfc:	f9400ba0 	ldr	x0, [x29, #16]
   83e00:	97fffd4c 	bl	83330 <IsEqualUGUID_00000000000000000000000042757331>
   83e04:	12001c00 	and	w0, w0, #0xff
   83e08:	7100001f 	cmp	w0, #0x0
   83e0c:	54000160 	b.eq	83e38 <CEcoInterfaceBus1_42757331_UnRegisterComponent+0xa0>  // b.none
   83e10:	f94027a0 	ldr	x0, [x29, #72]
   83e14:	f900141f 	str	xzr, [x0, #40]
   83e18:	f94027a0 	ldr	x0, [x29, #72]
   83e1c:	b900081f 	str	wzr, [x0, #8]
   83e20:	f94027a0 	ldr	x0, [x29, #72]
   83e24:	f9000c1f 	str	xzr, [x0, #24]
   83e28:	f94027a0 	ldr	x0, [x29, #72]
   83e2c:	f900101f 	str	xzr, [x0, #32]
   83e30:	79008fbf 	strh	wzr, [x29, #70]
   83e34:	14000009 	b	83e58 <CEcoInterfaceBus1_42757331_UnRegisterComponent+0xc0>
   83e38:	f94027a0 	ldr	x0, [x29, #72]
   83e3c:	f90017a0 	str	x0, [x29, #40]
   83e40:	f94027a0 	ldr	x0, [x29, #72]
   83e44:	f9401800 	ldr	x0, [x0, #48]
   83e48:	f90027a0 	str	x0, [x29, #72]
   83e4c:	f94027a0 	ldr	x0, [x29, #72]
   83e50:	f100001f 	cmp	x0, #0x0
   83e54:	54fffce1 	b.ne	83df0 <CEcoInterfaceBus1_42757331_UnRegisterComponent+0x58>  // b.any
   83e58:	79c08fa0 	ldrsh	w0, [x29, #70]
   83e5c:	a8c57bfd 	ldp	x29, x30, [sp], #80
   83e60:	d65f03c0 	ret

0000000000083e64 <CEcoInterfaceBus1_42757331_to_hex>:
   83e64:	d10103ff 	sub	sp, sp, #0x40
   83e68:	f9000fe0 	str	x0, [sp, #24]
   83e6c:	b90017e1 	str	w1, [sp, #20]
   83e70:	f90007e2 	str	x2, [sp, #8]
   83e74:	b90013e3 	str	w3, [sp, #16]
   83e78:	f9400fe0 	ldr	x0, [sp, #24]
   83e7c:	f9001fe0 	str	x0, [sp, #56]
   83e80:	f0000000 	adrp	x0, 86000 <g_xCEcoFactoryList1_42757331+0x100>
   83e84:	91150000 	add	x0, x0, #0x540
   83e88:	f90017e0 	str	x0, [sp, #40]
   83e8c:	f94007e0 	ldr	x0, [sp, #8]
   83e90:	f9001be0 	str	x0, [sp, #48]
   83e94:	14000024 	b	83f24 <CEcoInterfaceBus1_42757331_to_hex+0xc0>
   83e98:	f9401fe0 	ldr	x0, [sp, #56]
   83e9c:	39400000 	ldrb	w0, [x0]
   83ea0:	53047c00 	lsr	w0, w0, #4
   83ea4:	12001c00 	and	w0, w0, #0xff
   83ea8:	92401c00 	and	x0, x0, #0xff
   83eac:	92400c00 	and	x0, x0, #0xf
   83eb0:	f94017e1 	ldr	x1, [sp, #40]
   83eb4:	8b000020 	add	x0, x1, x0
   83eb8:	39400001 	ldrb	w1, [x0]
   83ebc:	f9401be0 	ldr	x0, [sp, #48]
   83ec0:	39000001 	strb	w1, [x0]
   83ec4:	f9401fe0 	ldr	x0, [sp, #56]
   83ec8:	39400000 	ldrb	w0, [x0]
   83ecc:	92401c00 	and	x0, x0, #0xff
   83ed0:	92400c00 	and	x0, x0, #0xf
   83ed4:	f94017e1 	ldr	x1, [sp, #40]
   83ed8:	8b000021 	add	x1, x1, x0
   83edc:	f9401be0 	ldr	x0, [sp, #48]
   83ee0:	91000400 	add	x0, x0, #0x1
   83ee4:	39400021 	ldrb	w1, [x1]
   83ee8:	39000001 	strb	w1, [x0]
   83eec:	f9401be0 	ldr	x0, [sp, #48]
   83ef0:	91000800 	add	x0, x0, #0x2
   83ef4:	aa0003e1 	mov	x1, x0
   83ef8:	f94007e0 	ldr	x0, [sp, #8]
   83efc:	cb000021 	sub	x1, x1, x0
   83f00:	b94013e0 	ldr	w0, [sp, #16]
   83f04:	eb00003f 	cmp	x1, x0
   83f08:	540001cc 	b.gt	83f40 <CEcoInterfaceBus1_42757331_to_hex+0xdc>
   83f0c:	f9401be0 	ldr	x0, [sp, #48]
   83f10:	91000800 	add	x0, x0, #0x2
   83f14:	f9001be0 	str	x0, [sp, #48]
   83f18:	f9401fe0 	ldr	x0, [sp, #56]
   83f1c:	91000400 	add	x0, x0, #0x1
   83f20:	f9001fe0 	str	x0, [sp, #56]
   83f24:	b94017e0 	ldr	w0, [sp, #20]
   83f28:	f9400fe1 	ldr	x1, [sp, #24]
   83f2c:	8b000020 	add	x0, x1, x0
   83f30:	f9401fe1 	ldr	x1, [sp, #56]
   83f34:	eb00003f 	cmp	x1, x0
   83f38:	54fffb03 	b.cc	83e98 <CEcoInterfaceBus1_42757331_to_hex+0x34>  // b.lo, b.ul, b.last
   83f3c:	14000002 	b	83f44 <CEcoInterfaceBus1_42757331_to_hex+0xe0>
   83f40:	d503201f 	nop
   83f44:	f9401be0 	ldr	x0, [sp, #48]
   83f48:	3900001f 	strb	wzr, [x0]
   83f4c:	d503201f 	nop
   83f50:	910103ff 	add	sp, sp, #0x40
   83f54:	d65f03c0 	ret

0000000000083f58 <CEcoInterfaceBus1_42757331_QueryComponent>:
   83f58:	a9b87bfd 	stp	x29, x30, [sp, #-128]!
   83f5c:	910003fd 	mov	x29, sp
   83f60:	f9001fa0 	str	x0, [x29, #56]
   83f64:	f9001ba1 	str	x1, [x29, #48]
   83f68:	f90017a2 	str	x2, [x29, #40]
   83f6c:	f90013a3 	str	x3, [x29, #32]
   83f70:	f9000fa4 	str	x4, [x29, #24]
   83f74:	f9401fa0 	ldr	x0, [x29, #56]
   83f78:	f90037a0 	str	x0, [x29, #104]
   83f7c:	f9003fbf 	str	xzr, [x29, #120]
   83f80:	f90033bf 	str	xzr, [x29, #96]
   83f84:	f9002fbf 	str	xzr, [x29, #88]
   83f88:	f9002bbf 	str	xzr, [x29, #80]
   83f8c:	f90027bf 	str	xzr, [x29, #72]
   83f90:	b90047bf 	str	wzr, [x29, #68]
   83f94:	12800000 	mov	w0, #0xffffffff            	// #-1
   83f98:	7900efa0 	strh	w0, [x29, #118]
   83f9c:	f9401fa0 	ldr	x0, [x29, #56]
   83fa0:	f100001f 	cmp	x0, #0x0
   83fa4:	54000061 	b.ne	83fb0 <CEcoInterfaceBus1_42757331_QueryComponent+0x58>  // b.any
   83fa8:	12800000 	mov	w0, #0xffffffff            	// #-1
   83fac:	1400002f 	b	84068 <CEcoInterfaceBus1_42757331_QueryComponent+0x110>
   83fb0:	f94037a0 	ldr	x0, [x29, #104]
   83fb4:	f9401000 	ldr	x0, [x0, #32]
   83fb8:	f9003fa0 	str	x0, [x29, #120]
   83fbc:	f94037a0 	ldr	x0, [x29, #104]
   83fc0:	f9401000 	ldr	x0, [x0, #32]
   83fc4:	f90033a0 	str	x0, [x29, #96]
   83fc8:	f9403fa0 	ldr	x0, [x29, #120]
   83fcc:	f9401000 	ldr	x0, [x0, #32]
   83fd0:	aa0003e1 	mov	x1, x0
   83fd4:	f9401ba0 	ldr	x0, [x29, #48]
   83fd8:	97fffcd6 	bl	83330 <IsEqualUGUID_00000000000000000000000042757331>
   83fdc:	12001c00 	and	w0, w0, #0xff
   83fe0:	7100001f 	cmp	w0, #0x0
   83fe4:	54000300 	b.eq	84044 <CEcoInterfaceBus1_42757331_QueryComponent+0xec>  // b.none
   83fe8:	f9403fa0 	ldr	x0, [x29, #120]
   83fec:	f9401400 	ldr	x0, [x0, #40]
   83ff0:	f9002ba0 	str	x0, [x29, #80]
   83ff4:	f9403fa0 	ldr	x0, [x29, #120]
   83ff8:	f9401400 	ldr	x0, [x0, #40]
   83ffc:	f9400000 	ldr	x0, [x0]
   84000:	f90027a0 	str	x0, [x29, #72]
   84004:	f9402ba0 	ldr	x0, [x29, #80]
   84008:	f9400000 	ldr	x0, [x0]
   8400c:	f9400c05 	ldr	x5, [x0, #24]
   84010:	f9403fa0 	ldr	x0, [x29, #120]
   84014:	f9400fa4 	ldr	x4, [x29, #24]
   84018:	f94013a3 	ldr	x3, [x29, #32]
   8401c:	f94017a2 	ldr	x2, [x29, #40]
   84020:	aa0003e1 	mov	x1, x0
   84024:	f9402ba0 	ldr	x0, [x29, #80]
   84028:	d63f00a0 	blr	x5
   8402c:	7900efa0 	strh	w0, [x29, #118]
   84030:	f9403fa0 	ldr	x0, [x29, #120]
   84034:	f9401400 	ldr	x0, [x0, #40]
   84038:	f94027a1 	ldr	x1, [x29, #72]
   8403c:	f9000001 	str	x1, [x0]
   84040:	14000009 	b	84064 <CEcoInterfaceBus1_42757331_QueryComponent+0x10c>
   84044:	f9403fa0 	ldr	x0, [x29, #120]
   84048:	f90033a0 	str	x0, [x29, #96]
   8404c:	f9403fa0 	ldr	x0, [x29, #120]
   84050:	f9401800 	ldr	x0, [x0, #48]
   84054:	f9003fa0 	str	x0, [x29, #120]
   84058:	f9403fa0 	ldr	x0, [x29, #120]
   8405c:	f100001f 	cmp	x0, #0x0
   84060:	54fffb41 	b.ne	83fc8 <CEcoInterfaceBus1_42757331_QueryComponent+0x70>  // b.any
   84064:	79c0efa0 	ldrsh	w0, [x29, #118]
   84068:	a8c87bfd 	ldp	x29, x30, [sp], #128
   8406c:	d65f03c0 	ret

0000000000084070 <CEcoInterfaceBus1_42757331_IEcoInterfaceBus1MemExt_QueryInterface>:
   84070:	a9bc7bfd 	stp	x29, x30, [sp, #-64]!
   84074:	910003fd 	mov	x29, sp
   84078:	f90017a0 	str	x0, [x29, #40]
   8407c:	f90013a1 	str	x1, [x29, #32]
   84080:	f9000fa2 	str	x2, [x29, #24]
   84084:	f94017a0 	ldr	x0, [x29, #40]
   84088:	d1002000 	sub	x0, x0, #0x8
   8408c:	f9001fa0 	str	x0, [x29, #56]
   84090:	12800000 	mov	w0, #0xffffffff            	// #-1
   84094:	79006fa0 	strh	w0, [x29, #54]
   84098:	f94017a0 	ldr	x0, [x29, #40]
   8409c:	f100001f 	cmp	x0, #0x0
   840a0:	54000080 	b.eq	840b0 <CEcoInterfaceBus1_42757331_IEcoInterfaceBus1MemExt_QueryInterface+0x40>  // b.none
   840a4:	f9400fa0 	ldr	x0, [x29, #24]
   840a8:	f100001f 	cmp	x0, #0x0
   840ac:	54000061 	b.ne	840b8 <CEcoInterfaceBus1_42757331_IEcoInterfaceBus1MemExt_QueryInterface+0x48>  // b.any
   840b0:	79c06fa0 	ldrsh	w0, [x29, #54]
   840b4:	1400003a 	b	8419c <CEcoInterfaceBus1_42757331_IEcoInterfaceBus1MemExt_QueryInterface+0x12c>
   840b8:	d0000000 	adrp	x0, 86000 <g_xCEcoFactoryList1_42757331+0x100>
   840bc:	9112c000 	add	x0, x0, #0x4b0
   840c0:	aa0003e1 	mov	x1, x0
   840c4:	f94013a0 	ldr	x0, [x29, #32]
   840c8:	97fffc9a 	bl	83330 <IsEqualUGUID_00000000000000000000000042757331>
   840cc:	12001c00 	and	w0, w0, #0xff
   840d0:	7100001f 	cmp	w0, #0x0
   840d4:	54000140 	b.eq	840fc <CEcoInterfaceBus1_42757331_IEcoInterfaceBus1MemExt_QueryInterface+0x8c>  // b.none
   840d8:	f9401fa1 	ldr	x1, [x29, #56]
   840dc:	f9400fa0 	ldr	x0, [x29, #24]
   840e0:	f9000001 	str	x1, [x0]
   840e4:	f9401fa0 	ldr	x0, [x29, #56]
   840e8:	f9400000 	ldr	x0, [x0]
   840ec:	f9400401 	ldr	x1, [x0, #8]
   840f0:	f9401fa0 	ldr	x0, [x29, #56]
   840f4:	d63f0020 	blr	x1
   840f8:	14000028 	b	84198 <CEcoInterfaceBus1_42757331_IEcoInterfaceBus1MemExt_QueryInterface+0x128>
   840fc:	d0000000 	adrp	x0, 86000 <g_xCEcoFactoryList1_42757331+0x100>
   84100:	9113e000 	add	x0, x0, #0x4f8
   84104:	aa0003e1 	mov	x1, x0
   84108:	f94013a0 	ldr	x0, [x29, #32]
   8410c:	97fffc89 	bl	83330 <IsEqualUGUID_00000000000000000000000042757331>
   84110:	12001c00 	and	w0, w0, #0xff
   84114:	7100001f 	cmp	w0, #0x0
   84118:	54000160 	b.eq	84144 <CEcoInterfaceBus1_42757331_IEcoInterfaceBus1MemExt_QueryInterface+0xd4>  // b.none
   8411c:	f9401fa0 	ldr	x0, [x29, #56]
   84120:	91002001 	add	x1, x0, #0x8
   84124:	f9400fa0 	ldr	x0, [x29, #24]
   84128:	f9000001 	str	x1, [x0]
   8412c:	f9401fa0 	ldr	x0, [x29, #56]
   84130:	f9400000 	ldr	x0, [x0]
   84134:	f9400401 	ldr	x1, [x0, #8]
   84138:	f9401fa0 	ldr	x0, [x29, #56]
   8413c:	d63f0020 	blr	x1
   84140:	14000016 	b	84198 <CEcoInterfaceBus1_42757331_IEcoInterfaceBus1MemExt_QueryInterface+0x128>
   84144:	d0000000 	adrp	x0, 86000 <g_xCEcoFactoryList1_42757331+0x100>
   84148:	9111a000 	add	x0, x0, #0x468
   8414c:	aa0003e1 	mov	x1, x0
   84150:	f94013a0 	ldr	x0, [x29, #32]
   84154:	97fffc77 	bl	83330 <IsEqualUGUID_00000000000000000000000042757331>
   84158:	12001c00 	and	w0, w0, #0xff
   8415c:	7100001f 	cmp	w0, #0x0
   84160:	54000140 	b.eq	84188 <CEcoInterfaceBus1_42757331_IEcoInterfaceBus1MemExt_QueryInterface+0x118>  // b.none
   84164:	f9401fa1 	ldr	x1, [x29, #56]
   84168:	f9400fa0 	ldr	x0, [x29, #24]
   8416c:	f9000001 	str	x1, [x0]
   84170:	f9401fa0 	ldr	x0, [x29, #56]
   84174:	f9400000 	ldr	x0, [x0]
   84178:	f9400401 	ldr	x1, [x0, #8]
   8417c:	f9401fa0 	ldr	x0, [x29, #56]
   84180:	d63f0020 	blr	x1
   84184:	14000005 	b	84198 <CEcoInterfaceBus1_42757331_IEcoInterfaceBus1MemExt_QueryInterface+0x128>
   84188:	f9400fa0 	ldr	x0, [x29, #24]
   8418c:	f900001f 	str	xzr, [x0]
   84190:	12800000 	mov	w0, #0xffffffff            	// #-1
   84194:	14000002 	b	8419c <CEcoInterfaceBus1_42757331_IEcoInterfaceBus1MemExt_QueryInterface+0x12c>
   84198:	52800000 	mov	w0, #0x0                   	// #0
   8419c:	a8c47bfd 	ldp	x29, x30, [sp], #64
   841a0:	d65f03c0 	ret

00000000000841a4 <CEcoInterfaceBus1_42757331_IEcoInterfaceBus1MemExt_AddRef>:
   841a4:	d10083ff 	sub	sp, sp, #0x20
   841a8:	f90007e0 	str	x0, [sp, #8]
   841ac:	f94007e0 	ldr	x0, [sp, #8]
   841b0:	d1002000 	sub	x0, x0, #0x8
   841b4:	f9000fe0 	str	x0, [sp, #24]
   841b8:	f94007e0 	ldr	x0, [sp, #8]
   841bc:	f100001f 	cmp	x0, #0x0
   841c0:	54000061 	b.ne	841cc <CEcoInterfaceBus1_42757331_IEcoInterfaceBus1MemExt_AddRef+0x28>  // b.any
   841c4:	12800000 	mov	w0, #0xffffffff            	// #-1
   841c8:	14000008 	b	841e8 <CEcoInterfaceBus1_42757331_IEcoInterfaceBus1MemExt_AddRef+0x44>
   841cc:	f9400fe0 	ldr	x0, [sp, #24]
   841d0:	b9401000 	ldr	w0, [x0, #16]
   841d4:	11000401 	add	w1, w0, #0x1
   841d8:	f9400fe0 	ldr	x0, [sp, #24]
   841dc:	b9001001 	str	w1, [x0, #16]
   841e0:	f9400fe0 	ldr	x0, [sp, #24]
   841e4:	b9401000 	ldr	w0, [x0, #16]
   841e8:	910083ff 	add	sp, sp, #0x20
   841ec:	d65f03c0 	ret

00000000000841f0 <CEcoInterfaceBus1_42757331_IEcoInterfaceBus1MemExt_Release>:
   841f0:	a9bd7bfd 	stp	x29, x30, [sp, #-48]!
   841f4:	910003fd 	mov	x29, sp
   841f8:	f9000fa0 	str	x0, [x29, #24]
   841fc:	f9400fa0 	ldr	x0, [x29, #24]
   84200:	d1002000 	sub	x0, x0, #0x8
   84204:	f90017a0 	str	x0, [x29, #40]
   84208:	f9400fa0 	ldr	x0, [x29, #24]
   8420c:	f100001f 	cmp	x0, #0x0
   84210:	54000061 	b.ne	8421c <CEcoInterfaceBus1_42757331_IEcoInterfaceBus1MemExt_Release+0x2c>  // b.any
   84214:	12800000 	mov	w0, #0xffffffff            	// #-1
   84218:	14000010 	b	84258 <CEcoInterfaceBus1_42757331_IEcoInterfaceBus1MemExt_Release+0x68>
   8421c:	f94017a0 	ldr	x0, [x29, #40]
   84220:	b9401000 	ldr	w0, [x0, #16]
   84224:	51000401 	sub	w1, w0, #0x1
   84228:	f94017a0 	ldr	x0, [x29, #40]
   8422c:	b9001001 	str	w1, [x0, #16]
   84230:	f94017a0 	ldr	x0, [x29, #40]
   84234:	b9401000 	ldr	w0, [x0, #16]
   84238:	7100001f 	cmp	w0, #0x0
   8423c:	540000a1 	b.ne	84250 <CEcoInterfaceBus1_42757331_IEcoInterfaceBus1MemExt_Release+0x60>  // b.any
   84240:	f94017a0 	ldr	x0, [x29, #40]
   84244:	94000075 	bl	84418 <deleteCEcoInterfaceBus1_42757331>
   84248:	52800000 	mov	w0, #0x0                   	// #0
   8424c:	14000003 	b	84258 <CEcoInterfaceBus1_42757331_IEcoInterfaceBus1MemExt_Release+0x68>
   84250:	f94017a0 	ldr	x0, [x29, #40]
   84254:	b9401000 	ldr	w0, [x0, #16]
   84258:	a8c37bfd 	ldp	x29, x30, [sp], #48
   8425c:	d65f03c0 	ret

0000000000084260 <CEcoInterfaceBus1_42757331_IEcoInterfaceBus1MemExt_set_Manager>:
   84260:	d10083ff 	sub	sp, sp, #0x20
   84264:	f90007e0 	str	x0, [sp, #8]
   84268:	f90003e1 	str	x1, [sp]
   8426c:	f94007e0 	ldr	x0, [sp, #8]
   84270:	d1002000 	sub	x0, x0, #0x8
   84274:	f9000fe0 	str	x0, [sp, #24]
   84278:	f94007e0 	ldr	x0, [sp, #8]
   8427c:	f100001f 	cmp	x0, #0x0
   84280:	54000080 	b.eq	84290 <CEcoInterfaceBus1_42757331_IEcoInterfaceBus1MemExt_set_Manager+0x30>  // b.none
   84284:	f94003e0 	ldr	x0, [sp]
   84288:	f100001f 	cmp	x0, #0x0
   8428c:	54000061 	b.ne	84298 <CEcoInterfaceBus1_42757331_IEcoInterfaceBus1MemExt_set_Manager+0x38>  // b.any
   84290:	12800000 	mov	w0, #0xffffffff            	// #-1
   84294:	14000005 	b	842a8 <CEcoInterfaceBus1_42757331_IEcoInterfaceBus1MemExt_set_Manager+0x48>
   84298:	f9400fe0 	ldr	x0, [sp, #24]
   8429c:	f94003e1 	ldr	x1, [sp]
   842a0:	f9001801 	str	x1, [x0, #48]
   842a4:	52800000 	mov	w0, #0x0                   	// #0
   842a8:	910083ff 	add	sp, sp, #0x20
   842ac:	d65f03c0 	ret

00000000000842b0 <CEcoInterfaceBus1_42757331_IEcoInterfaceBus1MemExt_get_Manager>:
   842b0:	d10083ff 	sub	sp, sp, #0x20
   842b4:	f90007e0 	str	x0, [sp, #8]
   842b8:	f94007e0 	ldr	x0, [sp, #8]
   842bc:	d1002000 	sub	x0, x0, #0x8
   842c0:	f9000fe0 	str	x0, [sp, #24]
   842c4:	f94007e0 	ldr	x0, [sp, #8]
   842c8:	f100001f 	cmp	x0, #0x0
   842cc:	54000061 	b.ne	842d8 <CEcoInterfaceBus1_42757331_IEcoInterfaceBus1MemExt_get_Manager+0x28>  // b.any
   842d0:	d2800000 	mov	x0, #0x0                   	// #0
   842d4:	14000003 	b	842e0 <CEcoInterfaceBus1_42757331_IEcoInterfaceBus1MemExt_get_Manager+0x30>
   842d8:	f9400fe0 	ldr	x0, [sp, #24]
   842dc:	f9401800 	ldr	x0, [x0, #48]
   842e0:	910083ff 	add	sp, sp, #0x20
   842e4:	d65f03c0 	ret

00000000000842e8 <CEcoInterfaceBus1_42757331_IEcoInterfaceBus1MemExt_set_ExpandPool>:
   842e8:	d10083ff 	sub	sp, sp, #0x20
   842ec:	f90007e0 	str	x0, [sp, #8]
   842f0:	39001fe1 	strb	w1, [sp, #7]
   842f4:	f94007e0 	ldr	x0, [sp, #8]
   842f8:	d1002000 	sub	x0, x0, #0x8
   842fc:	f9000fe0 	str	x0, [sp, #24]
   84300:	f94007e0 	ldr	x0, [sp, #8]
   84304:	f100001f 	cmp	x0, #0x0
   84308:	54000061 	b.ne	84314 <CEcoInterfaceBus1_42757331_IEcoInterfaceBus1MemExt_set_ExpandPool+0x2c>  // b.any
   8430c:	12800000 	mov	w0, #0xffffffff            	// #-1
   84310:	14000005 	b	84324 <CEcoInterfaceBus1_42757331_IEcoInterfaceBus1MemExt_set_ExpandPool+0x3c>
   84314:	f9400fe0 	ldr	x0, [sp, #24]
   84318:	39401fe1 	ldrb	w1, [sp, #7]
   8431c:	3900e001 	strb	w1, [x0, #56]
   84320:	52800000 	mov	w0, #0x0                   	// #0
   84324:	910083ff 	add	sp, sp, #0x20
   84328:	d65f03c0 	ret

000000000008432c <initCEcoInterfaceBus1_42757331>:
   8432c:	d10083ff 	sub	sp, sp, #0x20
   84330:	f90007e0 	str	x0, [sp, #8]
   84334:	f90003e1 	str	x1, [sp]
   84338:	f94007e0 	ldr	x0, [sp, #8]
   8433c:	f9000fe0 	str	x0, [sp, #24]
   84340:	12800000 	mov	w0, #0xffffffff            	// #-1
   84344:	79002fe0 	strh	w0, [sp, #22]
   84348:	f94007e0 	ldr	x0, [sp, #8]
   8434c:	f100001f 	cmp	x0, #0x0
   84350:	54000061 	b.ne	8435c <initCEcoInterfaceBus1_42757331+0x30>  // b.any
   84354:	79c02fe0 	ldrsh	w0, [sp, #22]
   84358:	14000005 	b	8436c <initCEcoInterfaceBus1_42757331+0x40>
   8435c:	f9400fe0 	ldr	x0, [sp, #24]
   84360:	f94003e1 	ldr	x1, [sp]
   84364:	f9000c01 	str	x1, [x0, #24]
   84368:	52800000 	mov	w0, #0x0                   	// #0
   8436c:	910083ff 	add	sp, sp, #0x20
   84370:	d65f03c0 	ret

0000000000084374 <createCEcoInterfaceBus1_42757331>:
   84374:	d100c3ff 	sub	sp, sp, #0x30
   84378:	f9000fe0 	str	x0, [sp, #24]
   8437c:	f9000be1 	str	x1, [sp, #16]
   84380:	f90007e2 	str	x2, [sp, #8]
   84384:	f90017ff 	str	xzr, [sp, #40]
   84388:	12800000 	mov	w0, #0xffffffff            	// #-1
   8438c:	79004fe0 	strh	w0, [sp, #38]
   84390:	b0000000 	adrp	x0, 85000 <CEcoIPCCMailbox1_QueryInterface+0x180>
   84394:	913b0000 	add	x0, x0, #0xec0
   84398:	f90017e0 	str	x0, [sp, #40]
   8439c:	f94017e0 	ldr	x0, [sp, #40]
   843a0:	b9401000 	ldr	w0, [x0, #16]
   843a4:	7100001f 	cmp	w0, #0x0
   843a8:	540002c1 	b.ne	84400 <createCEcoInterfaceBus1_42757331+0x8c>  // b.any
   843ac:	f94017e0 	ldr	x0, [sp, #40]
   843b0:	52800021 	mov	w1, #0x1                   	// #1
   843b4:	b9001001 	str	w1, [x0, #16]
   843b8:	f94017e0 	ldr	x0, [sp, #40]
   843bc:	f9000c1f 	str	xzr, [x0, #24]
   843c0:	f94017e0 	ldr	x0, [sp, #40]
   843c4:	f900141f 	str	xzr, [x0, #40]
   843c8:	f94017e0 	ldr	x0, [sp, #40]
   843cc:	b0000001 	adrp	x1, 85000 <CEcoIPCCMailbox1_QueryInterface+0x180>
   843d0:	9130c021 	add	x1, x1, #0xc30
   843d4:	f9000001 	str	x1, [x0]
   843d8:	f94017e0 	ldr	x0, [sp, #40]
   843dc:	b0000001 	adrp	x1, 85000 <CEcoIPCCMailbox1_QueryInterface+0x180>
   843e0:	9131c021 	add	x1, x1, #0xc70
   843e4:	f9000401 	str	x1, [x0, #8]
   843e8:	f94017e0 	ldr	x0, [sp, #40]
   843ec:	f900181f 	str	xzr, [x0, #48]
   843f0:	f94017e0 	ldr	x0, [sp, #40]
   843f4:	b0000001 	adrp	x1, 85000 <CEcoIPCCMailbox1_QueryInterface+0x180>
   843f8:	913c0021 	add	x1, x1, #0xf00
   843fc:	f9001001 	str	x1, [x0, #32]
   84400:	f94007e0 	ldr	x0, [sp, #8]
   84404:	f94017e1 	ldr	x1, [sp, #40]
   84408:	f9000001 	str	x1, [x0]
   8440c:	52800000 	mov	w0, #0x0                   	// #0
   84410:	9100c3ff 	add	sp, sp, #0x30
   84414:	d65f03c0 	ret

0000000000084418 <deleteCEcoInterfaceBus1_42757331>:
   84418:	a9bc7bfd 	stp	x29, x30, [sp, #-64]!
   8441c:	910003fd 	mov	x29, sp
   84420:	f9000fa0 	str	x0, [x29, #24]
   84424:	f9400fa0 	ldr	x0, [x29, #24]
   84428:	f9001ba0 	str	x0, [x29, #48]
   8442c:	f90017bf 	str	xzr, [x29, #40]
   84430:	f9001fbf 	str	xzr, [x29, #56]
   84434:	f90013bf 	str	xzr, [x29, #32]
   84438:	f9400fa0 	ldr	x0, [x29, #24]
   8443c:	f100001f 	cmp	x0, #0x0
   84440:	54000580 	b.eq	844f0 <deleteCEcoInterfaceBus1_42757331+0xd8>  // b.none
   84444:	f9401ba0 	ldr	x0, [x29, #48]
   84448:	f9401400 	ldr	x0, [x0, #40]
   8444c:	f100001f 	cmp	x0, #0x0
   84450:	54000500 	b.eq	844f0 <deleteCEcoInterfaceBus1_42757331+0xd8>  // b.none
   84454:	f9401ba0 	ldr	x0, [x29, #48]
   84458:	f9401000 	ldr	x0, [x0, #32]
   8445c:	91038000 	add	x0, x0, #0xe0
   84460:	f9001fa0 	str	x0, [x29, #56]
   84464:	f9401fa0 	ldr	x0, [x29, #56]
   84468:	f100001f 	cmp	x0, #0x0
   8446c:	54000340 	b.eq	844d4 <deleteCEcoInterfaceBus1_42757331+0xbc>  // b.none
   84470:	f9401fa0 	ldr	x0, [x29, #56]
   84474:	f9401800 	ldr	x0, [x0, #48]
   84478:	f9001fa0 	str	x0, [x29, #56]
   8447c:	14000011 	b	844c0 <deleteCEcoInterfaceBus1_42757331+0xa8>
   84480:	f9401fa0 	ldr	x0, [x29, #56]
   84484:	f90013a0 	str	x0, [x29, #32]
   84488:	f94013a0 	ldr	x0, [x29, #32]
   8448c:	f100001f 	cmp	x0, #0x0
   84490:	54000200 	b.eq	844d0 <deleteCEcoInterfaceBus1_42757331+0xb8>  // b.none
   84494:	f94013a0 	ldr	x0, [x29, #32]
   84498:	f9401800 	ldr	x0, [x0, #48]
   8449c:	f9001fa0 	str	x0, [x29, #56]
   844a0:	f9401ba0 	ldr	x0, [x29, #48]
   844a4:	f9401400 	ldr	x0, [x0, #40]
   844a8:	f9400000 	ldr	x0, [x0]
   844ac:	f9401002 	ldr	x2, [x0, #32]
   844b0:	f9401ba0 	ldr	x0, [x29, #48]
   844b4:	f9401400 	ldr	x0, [x0, #40]
   844b8:	f94013a1 	ldr	x1, [x29, #32]
   844bc:	d63f0040 	blr	x2
   844c0:	f9401fa0 	ldr	x0, [x29, #56]
   844c4:	f100001f 	cmp	x0, #0x0
   844c8:	54fffdc1 	b.ne	84480 <deleteCEcoInterfaceBus1_42757331+0x68>  // b.any
   844cc:	14000002 	b	844d4 <deleteCEcoInterfaceBus1_42757331+0xbc>
   844d0:	d503201f 	nop
   844d4:	f9401ba0 	ldr	x0, [x29, #48]
   844d8:	f9401400 	ldr	x0, [x0, #40]
   844dc:	f9400000 	ldr	x0, [x0]
   844e0:	f9400801 	ldr	x1, [x0, #16]
   844e4:	f9401ba0 	ldr	x0, [x29, #48]
   844e8:	f9401400 	ldr	x0, [x0, #40]
   844ec:	d63f0020 	blr	x1
   844f0:	d503201f 	nop
   844f4:	a8c47bfd 	ldp	x29, x30, [sp], #64
   844f8:	d65f03c0 	ret

00000000000844fc <CEcoIPCCMailbox1Factory_QueryInterface>:
   844fc:	a9bd7bfd 	stp	x29, x30, [sp, #-48]!
   84500:	910003fd 	mov	x29, sp
   84504:	f90017a0 	str	x0, [x29, #40]
   84508:	f90013a1 	str	x1, [x29, #32]
   8450c:	f9000fa2 	str	x2, [x29, #24]
   84510:	f94013a0 	ldr	x0, [x29, #32]
   84514:	39400001 	ldrb	w1, [x0]
   84518:	d0000000 	adrp	x0, 86000 <g_xCEcoFactoryList1_42757331+0x100>
   8451c:	91156000 	add	x0, x0, #0x558
   84520:	39400000 	ldrb	w0, [x0]
   84524:	6b00003f 	cmp	w1, w0
   84528:	54001121 	b.ne	8474c <CEcoIPCCMailbox1Factory_QueryInterface+0x250>  // b.any
   8452c:	f94013a0 	ldr	x0, [x29, #32]
   84530:	91000400 	add	x0, x0, #0x1
   84534:	39400001 	ldrb	w1, [x0]
   84538:	d0000000 	adrp	x0, 86000 <g_xCEcoFactoryList1_42757331+0x100>
   8453c:	91156400 	add	x0, x0, #0x559
   84540:	39400000 	ldrb	w0, [x0]
   84544:	6b00003f 	cmp	w1, w0
   84548:	54001021 	b.ne	8474c <CEcoIPCCMailbox1Factory_QueryInterface+0x250>  // b.any
   8454c:	f94013a0 	ldr	x0, [x29, #32]
   84550:	91000800 	add	x0, x0, #0x2
   84554:	39400001 	ldrb	w1, [x0]
   84558:	d0000000 	adrp	x0, 86000 <g_xCEcoFactoryList1_42757331+0x100>
   8455c:	91156800 	add	x0, x0, #0x55a
   84560:	39400000 	ldrb	w0, [x0]
   84564:	6b00003f 	cmp	w1, w0
   84568:	54000f21 	b.ne	8474c <CEcoIPCCMailbox1Factory_QueryInterface+0x250>  // b.any
   8456c:	f94013a0 	ldr	x0, [x29, #32]
   84570:	91000c00 	add	x0, x0, #0x3
   84574:	39400001 	ldrb	w1, [x0]
   84578:	d0000000 	adrp	x0, 86000 <g_xCEcoFactoryList1_42757331+0x100>
   8457c:	91156c00 	add	x0, x0, #0x55b
   84580:	39400000 	ldrb	w0, [x0]
   84584:	6b00003f 	cmp	w1, w0
   84588:	54000e21 	b.ne	8474c <CEcoIPCCMailbox1Factory_QueryInterface+0x250>  // b.any
   8458c:	f94013a0 	ldr	x0, [x29, #32]
   84590:	91001000 	add	x0, x0, #0x4
   84594:	39400001 	ldrb	w1, [x0]
   84598:	d0000000 	adrp	x0, 86000 <g_xCEcoFactoryList1_42757331+0x100>
   8459c:	91157000 	add	x0, x0, #0x55c
   845a0:	39400000 	ldrb	w0, [x0]
   845a4:	6b00003f 	cmp	w1, w0
   845a8:	54000d21 	b.ne	8474c <CEcoIPCCMailbox1Factory_QueryInterface+0x250>  // b.any
   845ac:	f94013a0 	ldr	x0, [x29, #32]
   845b0:	91001400 	add	x0, x0, #0x5
   845b4:	39400001 	ldrb	w1, [x0]
   845b8:	d0000000 	adrp	x0, 86000 <g_xCEcoFactoryList1_42757331+0x100>
   845bc:	91157400 	add	x0, x0, #0x55d
   845c0:	39400000 	ldrb	w0, [x0]
   845c4:	6b00003f 	cmp	w1, w0
   845c8:	54000c21 	b.ne	8474c <CEcoIPCCMailbox1Factory_QueryInterface+0x250>  // b.any
   845cc:	f94013a0 	ldr	x0, [x29, #32]
   845d0:	91001800 	add	x0, x0, #0x6
   845d4:	39400001 	ldrb	w1, [x0]
   845d8:	d0000000 	adrp	x0, 86000 <g_xCEcoFactoryList1_42757331+0x100>
   845dc:	91157800 	add	x0, x0, #0x55e
   845e0:	39400000 	ldrb	w0, [x0]
   845e4:	6b00003f 	cmp	w1, w0
   845e8:	54000b21 	b.ne	8474c <CEcoIPCCMailbox1Factory_QueryInterface+0x250>  // b.any
   845ec:	f94013a0 	ldr	x0, [x29, #32]
   845f0:	91001c00 	add	x0, x0, #0x7
   845f4:	39400001 	ldrb	w1, [x0]
   845f8:	d0000000 	adrp	x0, 86000 <g_xCEcoFactoryList1_42757331+0x100>
   845fc:	91157c00 	add	x0, x0, #0x55f
   84600:	39400000 	ldrb	w0, [x0]
   84604:	6b00003f 	cmp	w1, w0
   84608:	54000a21 	b.ne	8474c <CEcoIPCCMailbox1Factory_QueryInterface+0x250>  // b.any
   8460c:	f94013a0 	ldr	x0, [x29, #32]
   84610:	91002000 	add	x0, x0, #0x8
   84614:	39400001 	ldrb	w1, [x0]
   84618:	d0000000 	adrp	x0, 86000 <g_xCEcoFactoryList1_42757331+0x100>
   8461c:	91158000 	add	x0, x0, #0x560
   84620:	39400000 	ldrb	w0, [x0]
   84624:	6b00003f 	cmp	w1, w0
   84628:	54000921 	b.ne	8474c <CEcoIPCCMailbox1Factory_QueryInterface+0x250>  // b.any
   8462c:	f94013a0 	ldr	x0, [x29, #32]
   84630:	91002400 	add	x0, x0, #0x9
   84634:	39400001 	ldrb	w1, [x0]
   84638:	d0000000 	adrp	x0, 86000 <g_xCEcoFactoryList1_42757331+0x100>
   8463c:	91158400 	add	x0, x0, #0x561
   84640:	39400000 	ldrb	w0, [x0]
   84644:	6b00003f 	cmp	w1, w0
   84648:	54000821 	b.ne	8474c <CEcoIPCCMailbox1Factory_QueryInterface+0x250>  // b.any
   8464c:	f94013a0 	ldr	x0, [x29, #32]
   84650:	91002800 	add	x0, x0, #0xa
   84654:	39400001 	ldrb	w1, [x0]
   84658:	d0000000 	adrp	x0, 86000 <g_xCEcoFactoryList1_42757331+0x100>
   8465c:	91158800 	add	x0, x0, #0x562
   84660:	39400000 	ldrb	w0, [x0]
   84664:	6b00003f 	cmp	w1, w0
   84668:	54000721 	b.ne	8474c <CEcoIPCCMailbox1Factory_QueryInterface+0x250>  // b.any
   8466c:	f94013a0 	ldr	x0, [x29, #32]
   84670:	91002c00 	add	x0, x0, #0xb
   84674:	39400001 	ldrb	w1, [x0]
   84678:	d0000000 	adrp	x0, 86000 <g_xCEcoFactoryList1_42757331+0x100>
   8467c:	91158c00 	add	x0, x0, #0x563
   84680:	39400000 	ldrb	w0, [x0]
   84684:	6b00003f 	cmp	w1, w0
   84688:	54000621 	b.ne	8474c <CEcoIPCCMailbox1Factory_QueryInterface+0x250>  // b.any
   8468c:	f94013a0 	ldr	x0, [x29, #32]
   84690:	91003000 	add	x0, x0, #0xc
   84694:	39400001 	ldrb	w1, [x0]
   84698:	d0000000 	adrp	x0, 86000 <g_xCEcoFactoryList1_42757331+0x100>
   8469c:	91159000 	add	x0, x0, #0x564
   846a0:	39400000 	ldrb	w0, [x0]
   846a4:	6b00003f 	cmp	w1, w0
   846a8:	54000521 	b.ne	8474c <CEcoIPCCMailbox1Factory_QueryInterface+0x250>  // b.any
   846ac:	f94013a0 	ldr	x0, [x29, #32]
   846b0:	91003400 	add	x0, x0, #0xd
   846b4:	39400001 	ldrb	w1, [x0]
   846b8:	d0000000 	adrp	x0, 86000 <g_xCEcoFactoryList1_42757331+0x100>
   846bc:	91159400 	add	x0, x0, #0x565
   846c0:	39400000 	ldrb	w0, [x0]
   846c4:	6b00003f 	cmp	w1, w0
   846c8:	54000421 	b.ne	8474c <CEcoIPCCMailbox1Factory_QueryInterface+0x250>  // b.any
   846cc:	f94013a0 	ldr	x0, [x29, #32]
   846d0:	91003800 	add	x0, x0, #0xe
   846d4:	39400001 	ldrb	w1, [x0]
   846d8:	d0000000 	adrp	x0, 86000 <g_xCEcoFactoryList1_42757331+0x100>
   846dc:	91159800 	add	x0, x0, #0x566
   846e0:	39400000 	ldrb	w0, [x0]
   846e4:	6b00003f 	cmp	w1, w0
   846e8:	54000321 	b.ne	8474c <CEcoIPCCMailbox1Factory_QueryInterface+0x250>  // b.any
   846ec:	f94013a0 	ldr	x0, [x29, #32]
   846f0:	91003c00 	add	x0, x0, #0xf
   846f4:	39400001 	ldrb	w1, [x0]
   846f8:	d0000000 	adrp	x0, 86000 <g_xCEcoFactoryList1_42757331+0x100>
   846fc:	91159c00 	add	x0, x0, #0x567
   84700:	39400000 	ldrb	w0, [x0]
   84704:	6b00003f 	cmp	w1, w0
   84708:	54000221 	b.ne	8474c <CEcoIPCCMailbox1Factory_QueryInterface+0x250>  // b.any
   8470c:	f94013a0 	ldr	x0, [x29, #32]
   84710:	91004000 	add	x0, x0, #0x10
   84714:	39400001 	ldrb	w1, [x0]
   84718:	d0000000 	adrp	x0, 86000 <g_xCEcoFactoryList1_42757331+0x100>
   8471c:	9115a000 	add	x0, x0, #0x568
   84720:	39400000 	ldrb	w0, [x0]
   84724:	6b00003f 	cmp	w1, w0
   84728:	54000121 	b.ne	8474c <CEcoIPCCMailbox1Factory_QueryInterface+0x250>  // b.any
   8472c:	f94013a0 	ldr	x0, [x29, #32]
   84730:	91004400 	add	x0, x0, #0x11
   84734:	39400001 	ldrb	w1, [x0]
   84738:	d0000000 	adrp	x0, 86000 <g_xCEcoFactoryList1_42757331+0x100>
   8473c:	9115a400 	add	x0, x0, #0x569
   84740:	39400000 	ldrb	w0, [x0]
   84744:	6b00003f 	cmp	w1, w0
   84748:	54001200 	b.eq	84988 <CEcoIPCCMailbox1Factory_QueryInterface+0x48c>  // b.none
   8474c:	f94013a0 	ldr	x0, [x29, #32]
   84750:	39400001 	ldrb	w1, [x0]
   84754:	d0000000 	adrp	x0, 86000 <g_xCEcoFactoryList1_42757331+0x100>
   84758:	9115c000 	add	x0, x0, #0x570
   8475c:	39400000 	ldrb	w0, [x0]
   84760:	6b00003f 	cmp	w1, w0
   84764:	540012a1 	b.ne	849b8 <CEcoIPCCMailbox1Factory_QueryInterface+0x4bc>  // b.any
   84768:	f94013a0 	ldr	x0, [x29, #32]
   8476c:	91000400 	add	x0, x0, #0x1
   84770:	39400001 	ldrb	w1, [x0]
   84774:	d0000000 	adrp	x0, 86000 <g_xCEcoFactoryList1_42757331+0x100>
   84778:	9115c400 	add	x0, x0, #0x571
   8477c:	39400000 	ldrb	w0, [x0]
   84780:	6b00003f 	cmp	w1, w0
   84784:	540011a1 	b.ne	849b8 <CEcoIPCCMailbox1Factory_QueryInterface+0x4bc>  // b.any
   84788:	f94013a0 	ldr	x0, [x29, #32]
   8478c:	91000800 	add	x0, x0, #0x2
   84790:	39400001 	ldrb	w1, [x0]
   84794:	d0000000 	adrp	x0, 86000 <g_xCEcoFactoryList1_42757331+0x100>
   84798:	9115c800 	add	x0, x0, #0x572
   8479c:	39400000 	ldrb	w0, [x0]
   847a0:	6b00003f 	cmp	w1, w0
   847a4:	540010a1 	b.ne	849b8 <CEcoIPCCMailbox1Factory_QueryInterface+0x4bc>  // b.any
   847a8:	f94013a0 	ldr	x0, [x29, #32]
   847ac:	91000c00 	add	x0, x0, #0x3
   847b0:	39400001 	ldrb	w1, [x0]
   847b4:	d0000000 	adrp	x0, 86000 <g_xCEcoFactoryList1_42757331+0x100>
   847b8:	9115cc00 	add	x0, x0, #0x573
   847bc:	39400000 	ldrb	w0, [x0]
   847c0:	6b00003f 	cmp	w1, w0
   847c4:	54000fa1 	b.ne	849b8 <CEcoIPCCMailbox1Factory_QueryInterface+0x4bc>  // b.any
   847c8:	f94013a0 	ldr	x0, [x29, #32]
   847cc:	91001000 	add	x0, x0, #0x4
   847d0:	39400001 	ldrb	w1, [x0]
   847d4:	d0000000 	adrp	x0, 86000 <g_xCEcoFactoryList1_42757331+0x100>
   847d8:	9115d000 	add	x0, x0, #0x574
   847dc:	39400000 	ldrb	w0, [x0]
   847e0:	6b00003f 	cmp	w1, w0
   847e4:	54000ea1 	b.ne	849b8 <CEcoIPCCMailbox1Factory_QueryInterface+0x4bc>  // b.any
   847e8:	f94013a0 	ldr	x0, [x29, #32]
   847ec:	91001400 	add	x0, x0, #0x5
   847f0:	39400001 	ldrb	w1, [x0]
   847f4:	d0000000 	adrp	x0, 86000 <g_xCEcoFactoryList1_42757331+0x100>
   847f8:	9115d400 	add	x0, x0, #0x575
   847fc:	39400000 	ldrb	w0, [x0]
   84800:	6b00003f 	cmp	w1, w0
   84804:	54000da1 	b.ne	849b8 <CEcoIPCCMailbox1Factory_QueryInterface+0x4bc>  // b.any
   84808:	f94013a0 	ldr	x0, [x29, #32]
   8480c:	91001800 	add	x0, x0, #0x6
   84810:	39400001 	ldrb	w1, [x0]
   84814:	d0000000 	adrp	x0, 86000 <g_xCEcoFactoryList1_42757331+0x100>
   84818:	9115d800 	add	x0, x0, #0x576
   8481c:	39400000 	ldrb	w0, [x0]
   84820:	6b00003f 	cmp	w1, w0
   84824:	54000ca1 	b.ne	849b8 <CEcoIPCCMailbox1Factory_QueryInterface+0x4bc>  // b.any
   84828:	f94013a0 	ldr	x0, [x29, #32]
   8482c:	91001c00 	add	x0, x0, #0x7
   84830:	39400001 	ldrb	w1, [x0]
   84834:	d0000000 	adrp	x0, 86000 <g_xCEcoFactoryList1_42757331+0x100>
   84838:	9115dc00 	add	x0, x0, #0x577
   8483c:	39400000 	ldrb	w0, [x0]
   84840:	6b00003f 	cmp	w1, w0
   84844:	54000ba1 	b.ne	849b8 <CEcoIPCCMailbox1Factory_QueryInterface+0x4bc>  // b.any
   84848:	f94013a0 	ldr	x0, [x29, #32]
   8484c:	91002000 	add	x0, x0, #0x8
   84850:	39400001 	ldrb	w1, [x0]
   84854:	d0000000 	adrp	x0, 86000 <g_xCEcoFactoryList1_42757331+0x100>
   84858:	9115e000 	add	x0, x0, #0x578
   8485c:	39400000 	ldrb	w0, [x0]
   84860:	6b00003f 	cmp	w1, w0
   84864:	54000aa1 	b.ne	849b8 <CEcoIPCCMailbox1Factory_QueryInterface+0x4bc>  // b.any
   84868:	f94013a0 	ldr	x0, [x29, #32]
   8486c:	91002400 	add	x0, x0, #0x9
   84870:	39400001 	ldrb	w1, [x0]
   84874:	d0000000 	adrp	x0, 86000 <g_xCEcoFactoryList1_42757331+0x100>
   84878:	9115e400 	add	x0, x0, #0x579
   8487c:	39400000 	ldrb	w0, [x0]
   84880:	6b00003f 	cmp	w1, w0
   84884:	540009a1 	b.ne	849b8 <CEcoIPCCMailbox1Factory_QueryInterface+0x4bc>  // b.any
   84888:	f94013a0 	ldr	x0, [x29, #32]
   8488c:	91002800 	add	x0, x0, #0xa
   84890:	39400001 	ldrb	w1, [x0]
   84894:	d0000000 	adrp	x0, 86000 <g_xCEcoFactoryList1_42757331+0x100>
   84898:	9115e800 	add	x0, x0, #0x57a
   8489c:	39400000 	ldrb	w0, [x0]
   848a0:	6b00003f 	cmp	w1, w0
   848a4:	540008a1 	b.ne	849b8 <CEcoIPCCMailbox1Factory_QueryInterface+0x4bc>  // b.any
   848a8:	f94013a0 	ldr	x0, [x29, #32]
   848ac:	91002c00 	add	x0, x0, #0xb
   848b0:	39400001 	ldrb	w1, [x0]
   848b4:	d0000000 	adrp	x0, 86000 <g_xCEcoFactoryList1_42757331+0x100>
   848b8:	9115ec00 	add	x0, x0, #0x57b
   848bc:	39400000 	ldrb	w0, [x0]
   848c0:	6b00003f 	cmp	w1, w0
   848c4:	540007a1 	b.ne	849b8 <CEcoIPCCMailbox1Factory_QueryInterface+0x4bc>  // b.any
   848c8:	f94013a0 	ldr	x0, [x29, #32]
   848cc:	91003000 	add	x0, x0, #0xc
   848d0:	39400001 	ldrb	w1, [x0]
   848d4:	d0000000 	adrp	x0, 86000 <g_xCEcoFactoryList1_42757331+0x100>
   848d8:	9115f000 	add	x0, x0, #0x57c
   848dc:	39400000 	ldrb	w0, [x0]
   848e0:	6b00003f 	cmp	w1, w0
   848e4:	540006a1 	b.ne	849b8 <CEcoIPCCMailbox1Factory_QueryInterface+0x4bc>  // b.any
   848e8:	f94013a0 	ldr	x0, [x29, #32]
   848ec:	91003400 	add	x0, x0, #0xd
   848f0:	39400001 	ldrb	w1, [x0]
   848f4:	d0000000 	adrp	x0, 86000 <g_xCEcoFactoryList1_42757331+0x100>
   848f8:	9115f400 	add	x0, x0, #0x57d
   848fc:	39400000 	ldrb	w0, [x0]
   84900:	6b00003f 	cmp	w1, w0
   84904:	540005a1 	b.ne	849b8 <CEcoIPCCMailbox1Factory_QueryInterface+0x4bc>  // b.any
   84908:	f94013a0 	ldr	x0, [x29, #32]
   8490c:	91003800 	add	x0, x0, #0xe
   84910:	39400001 	ldrb	w1, [x0]
   84914:	d0000000 	adrp	x0, 86000 <g_xCEcoFactoryList1_42757331+0x100>
   84918:	9115f800 	add	x0, x0, #0x57e
   8491c:	39400000 	ldrb	w0, [x0]
   84920:	6b00003f 	cmp	w1, w0
   84924:	540004a1 	b.ne	849b8 <CEcoIPCCMailbox1Factory_QueryInterface+0x4bc>  // b.any
   84928:	f94013a0 	ldr	x0, [x29, #32]
   8492c:	91003c00 	add	x0, x0, #0xf
   84930:	39400001 	ldrb	w1, [x0]
   84934:	d0000000 	adrp	x0, 86000 <g_xCEcoFactoryList1_42757331+0x100>
   84938:	9115fc00 	add	x0, x0, #0x57f
   8493c:	39400000 	ldrb	w0, [x0]
   84940:	6b00003f 	cmp	w1, w0
   84944:	540003a1 	b.ne	849b8 <CEcoIPCCMailbox1Factory_QueryInterface+0x4bc>  // b.any
   84948:	f94013a0 	ldr	x0, [x29, #32]
   8494c:	91004000 	add	x0, x0, #0x10
   84950:	39400001 	ldrb	w1, [x0]
   84954:	d0000000 	adrp	x0, 86000 <g_xCEcoFactoryList1_42757331+0x100>
   84958:	91160000 	add	x0, x0, #0x580
   8495c:	39400000 	ldrb	w0, [x0]
   84960:	6b00003f 	cmp	w1, w0
   84964:	540002a1 	b.ne	849b8 <CEcoIPCCMailbox1Factory_QueryInterface+0x4bc>  // b.any
   84968:	f94013a0 	ldr	x0, [x29, #32]
   8496c:	91004400 	add	x0, x0, #0x11
   84970:	39400001 	ldrb	w1, [x0]
   84974:	d0000000 	adrp	x0, 86000 <g_xCEcoFactoryList1_42757331+0x100>
   84978:	91160400 	add	x0, x0, #0x581
   8497c:	39400000 	ldrb	w0, [x0]
   84980:	6b00003f 	cmp	w1, w0
   84984:	540001a1 	b.ne	849b8 <CEcoIPCCMailbox1Factory_QueryInterface+0x4bc>  // b.any
   84988:	f9400fa0 	ldr	x0, [x29, #24]
   8498c:	f94017a1 	ldr	x1, [x29, #40]
   84990:	f9000001 	str	x1, [x0]
   84994:	f9400fa0 	ldr	x0, [x29, #24]
   84998:	f9400000 	ldr	x0, [x0]
   8499c:	f9400000 	ldr	x0, [x0]
   849a0:	f9400401 	ldr	x1, [x0, #8]
   849a4:	f9400fa0 	ldr	x0, [x29, #24]
   849a8:	f9400000 	ldr	x0, [x0]
   849ac:	d63f0020 	blr	x1
   849b0:	52800000 	mov	w0, #0x0                   	// #0
   849b4:	14000004 	b	849c4 <CEcoIPCCMailbox1Factory_QueryInterface+0x4c8>
   849b8:	f9400fa0 	ldr	x0, [x29, #24]
   849bc:	f900001f 	str	xzr, [x0]
   849c0:	12800000 	mov	w0, #0xffffffff            	// #-1
   849c4:	a8c37bfd 	ldp	x29, x30, [sp], #48
   849c8:	d65f03c0 	ret

00000000000849cc <CEcoIPCCMailbox1Factory_AddRef>:
   849cc:	d10083ff 	sub	sp, sp, #0x20
   849d0:	f90007e0 	str	x0, [sp, #8]
   849d4:	f94007e0 	ldr	x0, [sp, #8]
   849d8:	f9000fe0 	str	x0, [sp, #24]
   849dc:	f94007e0 	ldr	x0, [sp, #8]
   849e0:	f100001f 	cmp	x0, #0x0
   849e4:	54000061 	b.ne	849f0 <CEcoIPCCMailbox1Factory_AddRef+0x24>  // b.any
   849e8:	12800000 	mov	w0, #0xffffffff            	// #-1
   849ec:	14000008 	b	84a0c <CEcoIPCCMailbox1Factory_AddRef+0x40>
   849f0:	f9400fe0 	ldr	x0, [sp, #24]
   849f4:	b9400800 	ldr	w0, [x0, #8]
   849f8:	11000401 	add	w1, w0, #0x1
   849fc:	f9400fe0 	ldr	x0, [sp, #24]
   84a00:	b9000801 	str	w1, [x0, #8]
   84a04:	f9400fe0 	ldr	x0, [sp, #24]
   84a08:	b9400800 	ldr	w0, [x0, #8]
   84a0c:	910083ff 	add	sp, sp, #0x20
   84a10:	d65f03c0 	ret

0000000000084a14 <CEcoIPCCMailbox1Factory_Release>:
   84a14:	d10083ff 	sub	sp, sp, #0x20
   84a18:	f90007e0 	str	x0, [sp, #8]
   84a1c:	f94007e0 	ldr	x0, [sp, #8]
   84a20:	f9000fe0 	str	x0, [sp, #24]
   84a24:	f94007e0 	ldr	x0, [sp, #8]
   84a28:	f100001f 	cmp	x0, #0x0
   84a2c:	54000061 	b.ne	84a38 <CEcoIPCCMailbox1Factory_Release+0x24>  // b.any
   84a30:	12800000 	mov	w0, #0xffffffff            	// #-1
   84a34:	1400000e 	b	84a6c <CEcoIPCCMailbox1Factory_Release+0x58>
   84a38:	f9400fe0 	ldr	x0, [sp, #24]
   84a3c:	b9400800 	ldr	w0, [x0, #8]
   84a40:	51000401 	sub	w1, w0, #0x1
   84a44:	f9400fe0 	ldr	x0, [sp, #24]
   84a48:	b9000801 	str	w1, [x0, #8]
   84a4c:	f9400fe0 	ldr	x0, [sp, #24]
   84a50:	b9400800 	ldr	w0, [x0, #8]
   84a54:	7100001f 	cmp	w0, #0x0
   84a58:	54000061 	b.ne	84a64 <CEcoIPCCMailbox1Factory_Release+0x50>  // b.any
   84a5c:	52800000 	mov	w0, #0x0                   	// #0
   84a60:	14000003 	b	84a6c <CEcoIPCCMailbox1Factory_Release+0x58>
   84a64:	f9400fe0 	ldr	x0, [sp, #24]
   84a68:	b9400800 	ldr	w0, [x0, #8]
   84a6c:	910083ff 	add	sp, sp, #0x20
   84a70:	d65f03c0 	ret

0000000000084a74 <CEcoIPCCMailbox1Factory_Init>:
   84a74:	a9bc7bfd 	stp	x29, x30, [sp, #-64]!
   84a78:	910003fd 	mov	x29, sp
   84a7c:	f90017a0 	str	x0, [x29, #40]
   84a80:	f90013a1 	str	x1, [x29, #32]
   84a84:	f9000fa2 	str	x2, [x29, #24]
   84a88:	f94017a0 	ldr	x0, [x29, #40]
   84a8c:	f9001fa0 	str	x0, [x29, #56]
   84a90:	12800000 	mov	w0, #0xffffffff            	// #-1
   84a94:	79006fa0 	strh	w0, [x29, #54]
   84a98:	f94017a0 	ldr	x0, [x29, #40]
   84a9c:	f100001f 	cmp	x0, #0x0
   84aa0:	54000061 	b.ne	84aac <CEcoIPCCMailbox1Factory_Init+0x38>  // b.any
   84aa4:	12800000 	mov	w0, #0xffffffff            	// #-1
   84aa8:	14000008 	b	84ac8 <CEcoIPCCMailbox1Factory_Init+0x54>
   84aac:	f9401fa0 	ldr	x0, [x29, #56]
   84ab0:	f9400c02 	ldr	x2, [x0, #24]
   84ab4:	f94013a1 	ldr	x1, [x29, #32]
   84ab8:	f9400fa0 	ldr	x0, [x29, #24]
   84abc:	d63f0040 	blr	x2
   84ac0:	79006fa0 	strh	w0, [x29, #54]
   84ac4:	79c06fa0 	ldrsh	w0, [x29, #54]
   84ac8:	a8c47bfd 	ldp	x29, x30, [sp], #64
   84acc:	d65f03c0 	ret

0000000000084ad0 <CEcoIPCCMailbox1Factory_Alloc>:
   84ad0:	a9ba7bfd 	stp	x29, x30, [sp, #-96]!
   84ad4:	910003fd 	mov	x29, sp
   84ad8:	f9001fa0 	str	x0, [x29, #56]
   84adc:	f9001ba1 	str	x1, [x29, #48]
   84ae0:	f90017a2 	str	x2, [x29, #40]
   84ae4:	f90013a3 	str	x3, [x29, #32]
   84ae8:	f9000fa4 	str	x4, [x29, #24]
   84aec:	f9401fa0 	ldr	x0, [x29, #56]
   84af0:	f9002fa0 	str	x0, [x29, #88]
   84af4:	12800000 	mov	w0, #0xffffffff            	// #-1
   84af8:	7900afa0 	strh	w0, [x29, #86]
   84afc:	f90027bf 	str	xzr, [x29, #72]
   84b00:	f9401fa0 	ldr	x0, [x29, #56]
   84b04:	f100001f 	cmp	x0, #0x0
   84b08:	54000061 	b.ne	84b14 <CEcoIPCCMailbox1Factory_Alloc+0x44>  // b.any
   84b0c:	12800000 	mov	w0, #0xffffffff            	// #-1
   84b10:	140000b3 	b	84ddc <CEcoIPCCMailbox1Factory_Alloc+0x30c>
   84b14:	f94017a0 	ldr	x0, [x29, #40]
   84b18:	f100001f 	cmp	x0, #0x0
   84b1c:	54001240 	b.eq	84d64 <CEcoIPCCMailbox1Factory_Alloc+0x294>  // b.none
   84b20:	f94013a0 	ldr	x0, [x29, #32]
   84b24:	39400001 	ldrb	w1, [x0]
   84b28:	d0000000 	adrp	x0, 86000 <g_xCEcoFactoryList1_42757331+0x100>
   84b2c:	91156000 	add	x0, x0, #0x558
   84b30:	39400000 	ldrb	w0, [x0]
   84b34:	6b00003f 	cmp	w1, w0
   84b38:	54001121 	b.ne	84d5c <CEcoIPCCMailbox1Factory_Alloc+0x28c>  // b.any
   84b3c:	f94013a0 	ldr	x0, [x29, #32]
   84b40:	91000400 	add	x0, x0, #0x1
   84b44:	39400001 	ldrb	w1, [x0]
   84b48:	d0000000 	adrp	x0, 86000 <g_xCEcoFactoryList1_42757331+0x100>
   84b4c:	91156400 	add	x0, x0, #0x559
   84b50:	39400000 	ldrb	w0, [x0]
   84b54:	6b00003f 	cmp	w1, w0
   84b58:	54001021 	b.ne	84d5c <CEcoIPCCMailbox1Factory_Alloc+0x28c>  // b.any
   84b5c:	f94013a0 	ldr	x0, [x29, #32]
   84b60:	91000800 	add	x0, x0, #0x2
   84b64:	39400001 	ldrb	w1, [x0]
   84b68:	d0000000 	adrp	x0, 86000 <g_xCEcoFactoryList1_42757331+0x100>
   84b6c:	91156800 	add	x0, x0, #0x55a
   84b70:	39400000 	ldrb	w0, [x0]
   84b74:	6b00003f 	cmp	w1, w0
   84b78:	54000f21 	b.ne	84d5c <CEcoIPCCMailbox1Factory_Alloc+0x28c>  // b.any
   84b7c:	f94013a0 	ldr	x0, [x29, #32]
   84b80:	91000c00 	add	x0, x0, #0x3
   84b84:	39400001 	ldrb	w1, [x0]
   84b88:	d0000000 	adrp	x0, 86000 <g_xCEcoFactoryList1_42757331+0x100>
   84b8c:	91156c00 	add	x0, x0, #0x55b
   84b90:	39400000 	ldrb	w0, [x0]
   84b94:	6b00003f 	cmp	w1, w0
   84b98:	54000e21 	b.ne	84d5c <CEcoIPCCMailbox1Factory_Alloc+0x28c>  // b.any
   84b9c:	f94013a0 	ldr	x0, [x29, #32]
   84ba0:	91001000 	add	x0, x0, #0x4
   84ba4:	39400001 	ldrb	w1, [x0]
   84ba8:	d0000000 	adrp	x0, 86000 <g_xCEcoFactoryList1_42757331+0x100>
   84bac:	91157000 	add	x0, x0, #0x55c
   84bb0:	39400000 	ldrb	w0, [x0]
   84bb4:	6b00003f 	cmp	w1, w0
   84bb8:	54000d21 	b.ne	84d5c <CEcoIPCCMailbox1Factory_Alloc+0x28c>  // b.any
   84bbc:	f94013a0 	ldr	x0, [x29, #32]
   84bc0:	91001400 	add	x0, x0, #0x5
   84bc4:	39400001 	ldrb	w1, [x0]
   84bc8:	d0000000 	adrp	x0, 86000 <g_xCEcoFactoryList1_42757331+0x100>
   84bcc:	91157400 	add	x0, x0, #0x55d
   84bd0:	39400000 	ldrb	w0, [x0]
   84bd4:	6b00003f 	cmp	w1, w0
   84bd8:	54000c21 	b.ne	84d5c <CEcoIPCCMailbox1Factory_Alloc+0x28c>  // b.any
   84bdc:	f94013a0 	ldr	x0, [x29, #32]
   84be0:	91001800 	add	x0, x0, #0x6
   84be4:	39400001 	ldrb	w1, [x0]
   84be8:	d0000000 	adrp	x0, 86000 <g_xCEcoFactoryList1_42757331+0x100>
   84bec:	91157800 	add	x0, x0, #0x55e
   84bf0:	39400000 	ldrb	w0, [x0]
   84bf4:	6b00003f 	cmp	w1, w0
   84bf8:	54000b21 	b.ne	84d5c <CEcoIPCCMailbox1Factory_Alloc+0x28c>  // b.any
   84bfc:	f94013a0 	ldr	x0, [x29, #32]
   84c00:	91001c00 	add	x0, x0, #0x7
   84c04:	39400001 	ldrb	w1, [x0]
   84c08:	d0000000 	adrp	x0, 86000 <g_xCEcoFactoryList1_42757331+0x100>
   84c0c:	91157c00 	add	x0, x0, #0x55f
   84c10:	39400000 	ldrb	w0, [x0]
   84c14:	6b00003f 	cmp	w1, w0
   84c18:	54000a21 	b.ne	84d5c <CEcoIPCCMailbox1Factory_Alloc+0x28c>  // b.any
   84c1c:	f94013a0 	ldr	x0, [x29, #32]
   84c20:	91002000 	add	x0, x0, #0x8
   84c24:	39400001 	ldrb	w1, [x0]
   84c28:	d0000000 	adrp	x0, 86000 <g_xCEcoFactoryList1_42757331+0x100>
   84c2c:	91158000 	add	x0, x0, #0x560
   84c30:	39400000 	ldrb	w0, [x0]
   84c34:	6b00003f 	cmp	w1, w0
   84c38:	54000921 	b.ne	84d5c <CEcoIPCCMailbox1Factory_Alloc+0x28c>  // b.any
   84c3c:	f94013a0 	ldr	x0, [x29, #32]
   84c40:	91002400 	add	x0, x0, #0x9
   84c44:	39400001 	ldrb	w1, [x0]
   84c48:	d0000000 	adrp	x0, 86000 <g_xCEcoFactoryList1_42757331+0x100>
   84c4c:	91158400 	add	x0, x0, #0x561
   84c50:	39400000 	ldrb	w0, [x0]
   84c54:	6b00003f 	cmp	w1, w0
   84c58:	54000821 	b.ne	84d5c <CEcoIPCCMailbox1Factory_Alloc+0x28c>  // b.any
   84c5c:	f94013a0 	ldr	x0, [x29, #32]
   84c60:	91002800 	add	x0, x0, #0xa
   84c64:	39400001 	ldrb	w1, [x0]
   84c68:	d0000000 	adrp	x0, 86000 <g_xCEcoFactoryList1_42757331+0x100>
   84c6c:	91158800 	add	x0, x0, #0x562
   84c70:	39400000 	ldrb	w0, [x0]
   84c74:	6b00003f 	cmp	w1, w0
   84c78:	54000721 	b.ne	84d5c <CEcoIPCCMailbox1Factory_Alloc+0x28c>  // b.any
   84c7c:	f94013a0 	ldr	x0, [x29, #32]
   84c80:	91002c00 	add	x0, x0, #0xb
   84c84:	39400001 	ldrb	w1, [x0]
   84c88:	d0000000 	adrp	x0, 86000 <g_xCEcoFactoryList1_42757331+0x100>
   84c8c:	91158c00 	add	x0, x0, #0x563
   84c90:	39400000 	ldrb	w0, [x0]
   84c94:	6b00003f 	cmp	w1, w0
   84c98:	54000621 	b.ne	84d5c <CEcoIPCCMailbox1Factory_Alloc+0x28c>  // b.any
   84c9c:	f94013a0 	ldr	x0, [x29, #32]
   84ca0:	91003000 	add	x0, x0, #0xc
   84ca4:	39400001 	ldrb	w1, [x0]
   84ca8:	d0000000 	adrp	x0, 86000 <g_xCEcoFactoryList1_42757331+0x100>
   84cac:	91159000 	add	x0, x0, #0x564
   84cb0:	39400000 	ldrb	w0, [x0]
   84cb4:	6b00003f 	cmp	w1, w0
   84cb8:	54000521 	b.ne	84d5c <CEcoIPCCMailbox1Factory_Alloc+0x28c>  // b.any
   84cbc:	f94013a0 	ldr	x0, [x29, #32]
   84cc0:	91003400 	add	x0, x0, #0xd
   84cc4:	39400001 	ldrb	w1, [x0]
   84cc8:	d0000000 	adrp	x0, 86000 <g_xCEcoFactoryList1_42757331+0x100>
   84ccc:	91159400 	add	x0, x0, #0x565
   84cd0:	39400000 	ldrb	w0, [x0]
   84cd4:	6b00003f 	cmp	w1, w0
   84cd8:	54000421 	b.ne	84d5c <CEcoIPCCMailbox1Factory_Alloc+0x28c>  // b.any
   84cdc:	f94013a0 	ldr	x0, [x29, #32]
   84ce0:	91003800 	add	x0, x0, #0xe
   84ce4:	39400001 	ldrb	w1, [x0]
   84ce8:	d0000000 	adrp	x0, 86000 <g_xCEcoFactoryList1_42757331+0x100>
   84cec:	91159800 	add	x0, x0, #0x566
   84cf0:	39400000 	ldrb	w0, [x0]
   84cf4:	6b00003f 	cmp	w1, w0
   84cf8:	54000321 	b.ne	84d5c <CEcoIPCCMailbox1Factory_Alloc+0x28c>  // b.any
   84cfc:	f94013a0 	ldr	x0, [x29, #32]
   84d00:	91003c00 	add	x0, x0, #0xf
   84d04:	39400001 	ldrb	w1, [x0]
   84d08:	d0000000 	adrp	x0, 86000 <g_xCEcoFactoryList1_42757331+0x100>
   84d0c:	91159c00 	add	x0, x0, #0x567
   84d10:	39400000 	ldrb	w0, [x0]
   84d14:	6b00003f 	cmp	w1, w0
   84d18:	54000221 	b.ne	84d5c <CEcoIPCCMailbox1Factory_Alloc+0x28c>  // b.any
   84d1c:	f94013a0 	ldr	x0, [x29, #32]
   84d20:	91004000 	add	x0, x0, #0x10
   84d24:	39400001 	ldrb	w1, [x0]
   84d28:	d0000000 	adrp	x0, 86000 <g_xCEcoFactoryList1_42757331+0x100>
   84d2c:	9115a000 	add	x0, x0, #0x568
   84d30:	39400000 	ldrb	w0, [x0]
   84d34:	6b00003f 	cmp	w1, w0
   84d38:	54000121 	b.ne	84d5c <CEcoIPCCMailbox1Factory_Alloc+0x28c>  // b.any
   84d3c:	f94013a0 	ldr	x0, [x29, #32]
   84d40:	91004400 	add	x0, x0, #0x11
   84d44:	39400001 	ldrb	w1, [x0]
   84d48:	d0000000 	adrp	x0, 86000 <g_xCEcoFactoryList1_42757331+0x100>
   84d4c:	9115a400 	add	x0, x0, #0x569
   84d50:	39400000 	ldrb	w0, [x0]
   84d54:	6b00003f 	cmp	w1, w0
   84d58:	54000060 	b.eq	84d64 <CEcoIPCCMailbox1Factory_Alloc+0x294>  // b.none
   84d5c:	12800000 	mov	w0, #0xffffffff            	// #-1
   84d60:	1400001f 	b	84ddc <CEcoIPCCMailbox1Factory_Alloc+0x30c>
   84d64:	f9402fa0 	ldr	x0, [x29, #88]
   84d68:	f9400803 	ldr	x3, [x0, #16]
   84d6c:	910123a0 	add	x0, x29, #0x48
   84d70:	aa0003e2 	mov	x2, x0
   84d74:	f94017a1 	ldr	x1, [x29, #40]
   84d78:	f9401ba0 	ldr	x0, [x29, #48]
   84d7c:	d63f0060 	blr	x3
   84d80:	7900afa0 	strh	w0, [x29, #86]
   84d84:	79c0afa0 	ldrsh	w0, [x29, #86]
   84d88:	7100001f 	cmp	w0, #0x0
   84d8c:	54000081 	b.ne	84d9c <CEcoIPCCMailbox1Factory_Alloc+0x2cc>  // b.any
   84d90:	f94027a0 	ldr	x0, [x29, #72]
   84d94:	f100001f 	cmp	x0, #0x0
   84d98:	54000061 	b.ne	84da4 <CEcoIPCCMailbox1Factory_Alloc+0x2d4>  // b.any
   84d9c:	12800000 	mov	w0, #0xffffffff            	// #-1
   84da0:	1400000f 	b	84ddc <CEcoIPCCMailbox1Factory_Alloc+0x30c>
   84da4:	f94027a0 	ldr	x0, [x29, #72]
   84da8:	f9400000 	ldr	x0, [x0]
   84dac:	f9400003 	ldr	x3, [x0]
   84db0:	f94027a0 	ldr	x0, [x29, #72]
   84db4:	f9400fa2 	ldr	x2, [x29, #24]
   84db8:	f94013a1 	ldr	x1, [x29, #32]
   84dbc:	d63f0060 	blr	x3
   84dc0:	7900afa0 	strh	w0, [x29, #86]
   84dc4:	f94027a0 	ldr	x0, [x29, #72]
   84dc8:	f9400000 	ldr	x0, [x0]
   84dcc:	f9400801 	ldr	x1, [x0, #16]
   84dd0:	f94027a0 	ldr	x0, [x29, #72]
   84dd4:	d63f0020 	blr	x1
   84dd8:	79c0afa0 	ldrsh	w0, [x29, #86]
   84ddc:	a8c67bfd 	ldp	x29, x30, [sp], #96
   84de0:	d65f03c0 	ret

0000000000084de4 <CEcoIPCCMailbox1Factory_get_Name>:
   84de4:	d10083ff 	sub	sp, sp, #0x20
   84de8:	f90007e0 	str	x0, [sp, #8]
   84dec:	f94007e0 	ldr	x0, [sp, #8]
   84df0:	f9000fe0 	str	x0, [sp, #24]
   84df4:	f94007e0 	ldr	x0, [sp, #8]
   84df8:	f100001f 	cmp	x0, #0x0
   84dfc:	54000061 	b.ne	84e08 <CEcoIPCCMailbox1Factory_get_Name+0x24>  // b.any
   84e00:	d2800000 	mov	x0, #0x0                   	// #0
   84e04:	14000003 	b	84e10 <CEcoIPCCMailbox1Factory_get_Name+0x2c>
   84e08:	f9400fe0 	ldr	x0, [sp, #24]
   84e0c:	91008000 	add	x0, x0, #0x20
   84e10:	910083ff 	add	sp, sp, #0x20
   84e14:	d65f03c0 	ret

0000000000084e18 <CEcoIPCCMailbox1Factory_get_Version>:
   84e18:	d10083ff 	sub	sp, sp, #0x20
   84e1c:	f90007e0 	str	x0, [sp, #8]
   84e20:	f94007e0 	ldr	x0, [sp, #8]
   84e24:	f9000fe0 	str	x0, [sp, #24]
   84e28:	f94007e0 	ldr	x0, [sp, #8]
   84e2c:	f100001f 	cmp	x0, #0x0
   84e30:	54000061 	b.ne	84e3c <CEcoIPCCMailbox1Factory_get_Version+0x24>  // b.any
   84e34:	d2800000 	mov	x0, #0x0                   	// #0
   84e38:	14000003 	b	84e44 <CEcoIPCCMailbox1Factory_get_Version+0x2c>
   84e3c:	f9400fe0 	ldr	x0, [sp, #24]
   84e40:	91018000 	add	x0, x0, #0x60
   84e44:	910083ff 	add	sp, sp, #0x20
   84e48:	d65f03c0 	ret

0000000000084e4c <CEcoIPCCMailbox1Factory_get_Manufacturer>:
   84e4c:	d10083ff 	sub	sp, sp, #0x20
   84e50:	f90007e0 	str	x0, [sp, #8]
   84e54:	f94007e0 	ldr	x0, [sp, #8]
   84e58:	f9000fe0 	str	x0, [sp, #24]
   84e5c:	f94007e0 	ldr	x0, [sp, #8]
   84e60:	f100001f 	cmp	x0, #0x0
   84e64:	54000061 	b.ne	84e70 <CEcoIPCCMailbox1Factory_get_Manufacturer+0x24>  // b.any
   84e68:	d2800000 	mov	x0, #0x0                   	// #0
   84e6c:	14000003 	b	84e78 <CEcoIPCCMailbox1Factory_get_Manufacturer+0x2c>
   84e70:	f9400fe0 	ldr	x0, [sp, #24]
   84e74:	9101c000 	add	x0, x0, #0x70
   84e78:	910083ff 	add	sp, sp, #0x20
   84e7c:	d65f03c0 	ret

0000000000084e80 <CEcoIPCCMailbox1_QueryInterface>:
   84e80:	a9bc7bfd 	stp	x29, x30, [sp, #-64]!
   84e84:	910003fd 	mov	x29, sp
   84e88:	f90017a0 	str	x0, [x29, #40]
   84e8c:	f90013a1 	str	x1, [x29, #32]
   84e90:	f9000fa2 	str	x2, [x29, #24]
   84e94:	f94017a0 	ldr	x0, [x29, #40]
   84e98:	f9001fa0 	str	x0, [x29, #56]
   84e9c:	12800000 	mov	w0, #0xffffffff            	// #-1
   84ea0:	79006fa0 	strh	w0, [x29, #54]
   84ea4:	f94017a0 	ldr	x0, [x29, #40]
   84ea8:	f100001f 	cmp	x0, #0x0
   84eac:	54000080 	b.eq	84ebc <CEcoIPCCMailbox1_QueryInterface+0x3c>  // b.none
   84eb0:	f9400fa0 	ldr	x0, [x29, #24]
   84eb4:	f100001f 	cmp	x0, #0x0
   84eb8:	54000061 	b.ne	84ec4 <CEcoIPCCMailbox1_QueryInterface+0x44>  // b.any
   84ebc:	79c06fa0 	ldrsh	w0, [x29, #54]
   84ec0:	14000136 	b	85398 <CEcoIPCCMailbox1_QueryInterface+0x518>
   84ec4:	f94013a0 	ldr	x0, [x29, #32]
   84ec8:	39400001 	ldrb	w1, [x0]
   84ecc:	d0000000 	adrp	x0, 86000 <g_xCEcoFactoryList1_42757331+0x100>
   84ed0:	91192000 	add	x0, x0, #0x648
   84ed4:	39400000 	ldrb	w0, [x0]
   84ed8:	6b00003f 	cmp	w1, w0
   84edc:	54001241 	b.ne	85124 <CEcoIPCCMailbox1_QueryInterface+0x2a4>  // b.any
   84ee0:	f94013a0 	ldr	x0, [x29, #32]
   84ee4:	91000400 	add	x0, x0, #0x1
   84ee8:	39400001 	ldrb	w1, [x0]
   84eec:	d0000000 	adrp	x0, 86000 <g_xCEcoFactoryList1_42757331+0x100>
   84ef0:	91192400 	add	x0, x0, #0x649
   84ef4:	39400000 	ldrb	w0, [x0]
   84ef8:	6b00003f 	cmp	w1, w0
   84efc:	54001141 	b.ne	85124 <CEcoIPCCMailbox1_QueryInterface+0x2a4>  // b.any
   84f00:	f94013a0 	ldr	x0, [x29, #32]
   84f04:	91000800 	add	x0, x0, #0x2
   84f08:	39400001 	ldrb	w1, [x0]
   84f0c:	d0000000 	adrp	x0, 86000 <g_xCEcoFactoryList1_42757331+0x100>
   84f10:	91192800 	add	x0, x0, #0x64a
   84f14:	39400000 	ldrb	w0, [x0]
   84f18:	6b00003f 	cmp	w1, w0
   84f1c:	54001041 	b.ne	85124 <CEcoIPCCMailbox1_QueryInterface+0x2a4>  // b.any
   84f20:	f94013a0 	ldr	x0, [x29, #32]
   84f24:	91000c00 	add	x0, x0, #0x3
   84f28:	39400001 	ldrb	w1, [x0]
   84f2c:	d0000000 	adrp	x0, 86000 <g_xCEcoFactoryList1_42757331+0x100>
   84f30:	91192c00 	add	x0, x0, #0x64b
   84f34:	39400000 	ldrb	w0, [x0]
   84f38:	6b00003f 	cmp	w1, w0
   84f3c:	54000f41 	b.ne	85124 <CEcoIPCCMailbox1_QueryInterface+0x2a4>  // b.any
   84f40:	f94013a0 	ldr	x0, [x29, #32]
   84f44:	91001000 	add	x0, x0, #0x4
   84f48:	39400001 	ldrb	w1, [x0]
   84f4c:	d0000000 	adrp	x0, 86000 <g_xCEcoFactoryList1_42757331+0x100>
   84f50:	91193000 	add	x0, x0, #0x64c
   84f54:	39400000 	ldrb	w0, [x0]
   84f58:	6b00003f 	cmp	w1, w0
   84f5c:	54000e41 	b.ne	85124 <CEcoIPCCMailbox1_QueryInterface+0x2a4>  // b.any
   84f60:	f94013a0 	ldr	x0, [x29, #32]
   84f64:	91001400 	add	x0, x0, #0x5
   84f68:	39400001 	ldrb	w1, [x0]
   84f6c:	d0000000 	adrp	x0, 86000 <g_xCEcoFactoryList1_42757331+0x100>
   84f70:	91193400 	add	x0, x0, #0x64d
   84f74:	39400000 	ldrb	w0, [x0]
   84f78:	6b00003f 	cmp	w1, w0
   84f7c:	54000d41 	b.ne	85124 <CEcoIPCCMailbox1_QueryInterface+0x2a4>  // b.any
   84f80:	f94013a0 	ldr	x0, [x29, #32]
   84f84:	91001800 	add	x0, x0, #0x6
   84f88:	39400001 	ldrb	w1, [x0]
   84f8c:	d0000000 	adrp	x0, 86000 <g_xCEcoFactoryList1_42757331+0x100>
   84f90:	91193800 	add	x0, x0, #0x64e
   84f94:	39400000 	ldrb	w0, [x0]
   84f98:	6b00003f 	cmp	w1, w0
   84f9c:	54000c41 	b.ne	85124 <CEcoIPCCMailbox1_QueryInterface+0x2a4>  // b.any
   84fa0:	f94013a0 	ldr	x0, [x29, #32]
   84fa4:	91001c00 	add	x0, x0, #0x7
   84fa8:	39400001 	ldrb	w1, [x0]
   84fac:	d0000000 	adrp	x0, 86000 <g_xCEcoFactoryList1_42757331+0x100>
   84fb0:	91193c00 	add	x0, x0, #0x64f
   84fb4:	39400000 	ldrb	w0, [x0]
   84fb8:	6b00003f 	cmp	w1, w0
   84fbc:	54000b41 	b.ne	85124 <CEcoIPCCMailbox1_QueryInterface+0x2a4>  // b.any
   84fc0:	f94013a0 	ldr	x0, [x29, #32]
   84fc4:	91002000 	add	x0, x0, #0x8
   84fc8:	39400001 	ldrb	w1, [x0]
   84fcc:	d0000000 	adrp	x0, 86000 <g_xCEcoFactoryList1_42757331+0x100>
   84fd0:	91194000 	add	x0, x0, #0x650
   84fd4:	39400000 	ldrb	w0, [x0]
   84fd8:	6b00003f 	cmp	w1, w0
   84fdc:	54000a41 	b.ne	85124 <CEcoIPCCMailbox1_QueryInterface+0x2a4>  // b.any
   84fe0:	f94013a0 	ldr	x0, [x29, #32]
   84fe4:	91002400 	add	x0, x0, #0x9
   84fe8:	39400001 	ldrb	w1, [x0]
   84fec:	d0000000 	adrp	x0, 86000 <g_xCEcoFactoryList1_42757331+0x100>
   84ff0:	91194400 	add	x0, x0, #0x651
   84ff4:	39400000 	ldrb	w0, [x0]
   84ff8:	6b00003f 	cmp	w1, w0
   84ffc:	54000941 	b.ne	85124 <CEcoIPCCMailbox1_QueryInterface+0x2a4>  // b.any
   85000:	f94013a0 	ldr	x0, [x29, #32]
   85004:	91002800 	add	x0, x0, #0xa
   85008:	39400001 	ldrb	w1, [x0]
   8500c:	b0000000 	adrp	x0, 86000 <g_xCEcoFactoryList1_42757331+0x100>
   85010:	91194800 	add	x0, x0, #0x652
   85014:	39400000 	ldrb	w0, [x0]
   85018:	6b00003f 	cmp	w1, w0
   8501c:	54000841 	b.ne	85124 <CEcoIPCCMailbox1_QueryInterface+0x2a4>  // b.any
   85020:	f94013a0 	ldr	x0, [x29, #32]
   85024:	91002c00 	add	x0, x0, #0xb
   85028:	39400001 	ldrb	w1, [x0]
   8502c:	b0000000 	adrp	x0, 86000 <g_xCEcoFactoryList1_42757331+0x100>
   85030:	91194c00 	add	x0, x0, #0x653
   85034:	39400000 	ldrb	w0, [x0]
   85038:	6b00003f 	cmp	w1, w0
   8503c:	54000741 	b.ne	85124 <CEcoIPCCMailbox1_QueryInterface+0x2a4>  // b.any
   85040:	f94013a0 	ldr	x0, [x29, #32]
   85044:	91003000 	add	x0, x0, #0xc
   85048:	39400001 	ldrb	w1, [x0]
   8504c:	b0000000 	adrp	x0, 86000 <g_xCEcoFactoryList1_42757331+0x100>
   85050:	91195000 	add	x0, x0, #0x654
   85054:	39400000 	ldrb	w0, [x0]
   85058:	6b00003f 	cmp	w1, w0
   8505c:	54000641 	b.ne	85124 <CEcoIPCCMailbox1_QueryInterface+0x2a4>  // b.any
   85060:	f94013a0 	ldr	x0, [x29, #32]
   85064:	91003400 	add	x0, x0, #0xd
   85068:	39400001 	ldrb	w1, [x0]
   8506c:	b0000000 	adrp	x0, 86000 <g_xCEcoFactoryList1_42757331+0x100>
   85070:	91195400 	add	x0, x0, #0x655
   85074:	39400000 	ldrb	w0, [x0]
   85078:	6b00003f 	cmp	w1, w0
   8507c:	54000541 	b.ne	85124 <CEcoIPCCMailbox1_QueryInterface+0x2a4>  // b.any
   85080:	f94013a0 	ldr	x0, [x29, #32]
   85084:	91003800 	add	x0, x0, #0xe
   85088:	39400001 	ldrb	w1, [x0]
   8508c:	b0000000 	adrp	x0, 86000 <g_xCEcoFactoryList1_42757331+0x100>
   85090:	91195800 	add	x0, x0, #0x656
   85094:	39400000 	ldrb	w0, [x0]
   85098:	6b00003f 	cmp	w1, w0
   8509c:	54000441 	b.ne	85124 <CEcoIPCCMailbox1_QueryInterface+0x2a4>  // b.any
   850a0:	f94013a0 	ldr	x0, [x29, #32]
   850a4:	91003c00 	add	x0, x0, #0xf
   850a8:	39400001 	ldrb	w1, [x0]
   850ac:	b0000000 	adrp	x0, 86000 <g_xCEcoFactoryList1_42757331+0x100>
   850b0:	91195c00 	add	x0, x0, #0x657
   850b4:	39400000 	ldrb	w0, [x0]
   850b8:	6b00003f 	cmp	w1, w0
   850bc:	54000341 	b.ne	85124 <CEcoIPCCMailbox1_QueryInterface+0x2a4>  // b.any
   850c0:	f94013a0 	ldr	x0, [x29, #32]
   850c4:	91004000 	add	x0, x0, #0x10
   850c8:	39400001 	ldrb	w1, [x0]
   850cc:	b0000000 	adrp	x0, 86000 <g_xCEcoFactoryList1_42757331+0x100>
   850d0:	91196000 	add	x0, x0, #0x658
   850d4:	39400000 	ldrb	w0, [x0]
   850d8:	6b00003f 	cmp	w1, w0
   850dc:	54000241 	b.ne	85124 <CEcoIPCCMailbox1_QueryInterface+0x2a4>  // b.any
   850e0:	f94013a0 	ldr	x0, [x29, #32]
   850e4:	91004400 	add	x0, x0, #0x11
   850e8:	39400001 	ldrb	w1, [x0]
   850ec:	b0000000 	adrp	x0, 86000 <g_xCEcoFactoryList1_42757331+0x100>
   850f0:	91196400 	add	x0, x0, #0x659
   850f4:	39400000 	ldrb	w0, [x0]
   850f8:	6b00003f 	cmp	w1, w0
   850fc:	54000141 	b.ne	85124 <CEcoIPCCMailbox1_QueryInterface+0x2a4>  // b.any
   85100:	f9401fa1 	ldr	x1, [x29, #56]
   85104:	f9400fa0 	ldr	x0, [x29, #24]
   85108:	f9000001 	str	x1, [x0]
   8510c:	f9401fa0 	ldr	x0, [x29, #56]
   85110:	f9400000 	ldr	x0, [x0]
   85114:	f9400401 	ldr	x1, [x0, #8]
   85118:	f9401fa0 	ldr	x0, [x29, #56]
   8511c:	d63f0020 	blr	x1
   85120:	1400009d 	b	85394 <CEcoIPCCMailbox1_QueryInterface+0x514>
   85124:	f94013a0 	ldr	x0, [x29, #32]
   85128:	39400001 	ldrb	w1, [x0]
   8512c:	b0000000 	adrp	x0, 86000 <g_xCEcoFactoryList1_42757331+0x100>
   85130:	9117a000 	add	x0, x0, #0x5e8
   85134:	39400000 	ldrb	w0, [x0]
   85138:	6b00003f 	cmp	w1, w0
   8513c:	54001241 	b.ne	85384 <CEcoIPCCMailbox1_QueryInterface+0x504>  // b.any
   85140:	f94013a0 	ldr	x0, [x29, #32]
   85144:	91000400 	add	x0, x0, #0x1
   85148:	39400001 	ldrb	w1, [x0]
   8514c:	b0000000 	adrp	x0, 86000 <g_xCEcoFactoryList1_42757331+0x100>
   85150:	9117a400 	add	x0, x0, #0x5e9
   85154:	39400000 	ldrb	w0, [x0]
   85158:	6b00003f 	cmp	w1, w0
   8515c:	54001141 	b.ne	85384 <CEcoIPCCMailbox1_QueryInterface+0x504>  // b.any
   85160:	f94013a0 	ldr	x0, [x29, #32]
   85164:	91000800 	add	x0, x0, #0x2
   85168:	39400001 	ldrb	w1, [x0]
   8516c:	b0000000 	adrp	x0, 86000 <g_xCEcoFactoryList1_42757331+0x100>
   85170:	9117a800 	add	x0, x0, #0x5ea
   85174:	39400000 	ldrb	w0, [x0]
   85178:	6b00003f 	cmp	w1, w0
   8517c:	54001041 	b.ne	85384 <CEcoIPCCMailbox1_QueryInterface+0x504>  // b.any
   85180:	f94013a0 	ldr	x0, [x29, #32]
   85184:	91000c00 	add	x0, x0, #0x3
   85188:	39400001 	ldrb	w1, [x0]
   8518c:	b0000000 	adrp	x0, 86000 <g_xCEcoFactoryList1_42757331+0x100>
   85190:	9117ac00 	add	x0, x0, #0x5eb
   85194:	39400000 	ldrb	w0, [x0]
   85198:	6b00003f 	cmp	w1, w0
   8519c:	54000f41 	b.ne	85384 <CEcoIPCCMailbox1_QueryInterface+0x504>  // b.any
   851a0:	f94013a0 	ldr	x0, [x29, #32]
   851a4:	91001000 	add	x0, x0, #0x4
   851a8:	39400001 	ldrb	w1, [x0]
   851ac:	b0000000 	adrp	x0, 86000 <g_xCEcoFactoryList1_42757331+0x100>
   851b0:	9117b000 	add	x0, x0, #0x5ec
   851b4:	39400000 	ldrb	w0, [x0]
   851b8:	6b00003f 	cmp	w1, w0
   851bc:	54000e41 	b.ne	85384 <CEcoIPCCMailbox1_QueryInterface+0x504>  // b.any
   851c0:	f94013a0 	ldr	x0, [x29, #32]
   851c4:	91001400 	add	x0, x0, #0x5
   851c8:	39400001 	ldrb	w1, [x0]
   851cc:	b0000000 	adrp	x0, 86000 <g_xCEcoFactoryList1_42757331+0x100>
   851d0:	9117b400 	add	x0, x0, #0x5ed
   851d4:	39400000 	ldrb	w0, [x0]
   851d8:	6b00003f 	cmp	w1, w0
   851dc:	54000d41 	b.ne	85384 <CEcoIPCCMailbox1_QueryInterface+0x504>  // b.any
   851e0:	f94013a0 	ldr	x0, [x29, #32]
   851e4:	91001800 	add	x0, x0, #0x6
   851e8:	39400001 	ldrb	w1, [x0]
   851ec:	b0000000 	adrp	x0, 86000 <g_xCEcoFactoryList1_42757331+0x100>
   851f0:	9117b800 	add	x0, x0, #0x5ee
   851f4:	39400000 	ldrb	w0, [x0]
   851f8:	6b00003f 	cmp	w1, w0
   851fc:	54000c41 	b.ne	85384 <CEcoIPCCMailbox1_QueryInterface+0x504>  // b.any
   85200:	f94013a0 	ldr	x0, [x29, #32]
   85204:	91001c00 	add	x0, x0, #0x7
   85208:	39400001 	ldrb	w1, [x0]
   8520c:	b0000000 	adrp	x0, 86000 <g_xCEcoFactoryList1_42757331+0x100>
   85210:	9117bc00 	add	x0, x0, #0x5ef
   85214:	39400000 	ldrb	w0, [x0]
   85218:	6b00003f 	cmp	w1, w0
   8521c:	54000b41 	b.ne	85384 <CEcoIPCCMailbox1_QueryInterface+0x504>  // b.any
   85220:	f94013a0 	ldr	x0, [x29, #32]
   85224:	91002000 	add	x0, x0, #0x8
   85228:	39400001 	ldrb	w1, [x0]
   8522c:	b0000000 	adrp	x0, 86000 <g_xCEcoFactoryList1_42757331+0x100>
   85230:	9117c000 	add	x0, x0, #0x5f0
   85234:	39400000 	ldrb	w0, [x0]
   85238:	6b00003f 	cmp	w1, w0
   8523c:	54000a41 	b.ne	85384 <CEcoIPCCMailbox1_QueryInterface+0x504>  // b.any
   85240:	f94013a0 	ldr	x0, [x29, #32]
   85244:	91002400 	add	x0, x0, #0x9
   85248:	39400001 	ldrb	w1, [x0]
   8524c:	b0000000 	adrp	x0, 86000 <g_xCEcoFactoryList1_42757331+0x100>
   85250:	9117c400 	add	x0, x0, #0x5f1
   85254:	39400000 	ldrb	w0, [x0]
   85258:	6b00003f 	cmp	w1, w0
   8525c:	54000941 	b.ne	85384 <CEcoIPCCMailbox1_QueryInterface+0x504>  // b.any
   85260:	f94013a0 	ldr	x0, [x29, #32]
   85264:	91002800 	add	x0, x0, #0xa
   85268:	39400001 	ldrb	w1, [x0]
   8526c:	b0000000 	adrp	x0, 86000 <g_xCEcoFactoryList1_42757331+0x100>
   85270:	9117c800 	add	x0, x0, #0x5f2
   85274:	39400000 	ldrb	w0, [x0]
   85278:	6b00003f 	cmp	w1, w0
   8527c:	54000841 	b.ne	85384 <CEcoIPCCMailbox1_QueryInterface+0x504>  // b.any
   85280:	f94013a0 	ldr	x0, [x29, #32]
   85284:	91002c00 	add	x0, x0, #0xb
   85288:	39400001 	ldrb	w1, [x0]
   8528c:	b0000000 	adrp	x0, 86000 <g_xCEcoFactoryList1_42757331+0x100>
   85290:	9117cc00 	add	x0, x0, #0x5f3
   85294:	39400000 	ldrb	w0, [x0]
   85298:	6b00003f 	cmp	w1, w0
   8529c:	54000741 	b.ne	85384 <CEcoIPCCMailbox1_QueryInterface+0x504>  // b.any
   852a0:	f94013a0 	ldr	x0, [x29, #32]
   852a4:	91003000 	add	x0, x0, #0xc
   852a8:	39400001 	ldrb	w1, [x0]
   852ac:	b0000000 	adrp	x0, 86000 <g_xCEcoFactoryList1_42757331+0x100>
   852b0:	9117d000 	add	x0, x0, #0x5f4
   852b4:	39400000 	ldrb	w0, [x0]
   852b8:	6b00003f 	cmp	w1, w0
   852bc:	54000641 	b.ne	85384 <CEcoIPCCMailbox1_QueryInterface+0x504>  // b.any
   852c0:	f94013a0 	ldr	x0, [x29, #32]
   852c4:	91003400 	add	x0, x0, #0xd
   852c8:	39400001 	ldrb	w1, [x0]
   852cc:	b0000000 	adrp	x0, 86000 <g_xCEcoFactoryList1_42757331+0x100>
   852d0:	9117d400 	add	x0, x0, #0x5f5
   852d4:	39400000 	ldrb	w0, [x0]
   852d8:	6b00003f 	cmp	w1, w0
   852dc:	54000541 	b.ne	85384 <CEcoIPCCMailbox1_QueryInterface+0x504>  // b.any
   852e0:	f94013a0 	ldr	x0, [x29, #32]
   852e4:	91003800 	add	x0, x0, #0xe
   852e8:	39400001 	ldrb	w1, [x0]
   852ec:	b0000000 	adrp	x0, 86000 <g_xCEcoFactoryList1_42757331+0x100>
   852f0:	9117d800 	add	x0, x0, #0x5f6
   852f4:	39400000 	ldrb	w0, [x0]
   852f8:	6b00003f 	cmp	w1, w0
   852fc:	54000441 	b.ne	85384 <CEcoIPCCMailbox1_QueryInterface+0x504>  // b.any
   85300:	f94013a0 	ldr	x0, [x29, #32]
   85304:	91003c00 	add	x0, x0, #0xf
   85308:	39400001 	ldrb	w1, [x0]
   8530c:	b0000000 	adrp	x0, 86000 <g_xCEcoFactoryList1_42757331+0x100>
   85310:	9117dc00 	add	x0, x0, #0x5f7
   85314:	39400000 	ldrb	w0, [x0]
   85318:	6b00003f 	cmp	w1, w0
   8531c:	54000341 	b.ne	85384 <CEcoIPCCMailbox1_QueryInterface+0x504>  // b.any
   85320:	f94013a0 	ldr	x0, [x29, #32]
   85324:	91004000 	add	x0, x0, #0x10
   85328:	39400001 	ldrb	w1, [x0]
   8532c:	b0000000 	adrp	x0, 86000 <g_xCEcoFactoryList1_42757331+0x100>
   85330:	9117e000 	add	x0, x0, #0x5f8
   85334:	39400000 	ldrb	w0, [x0]
   85338:	6b00003f 	cmp	w1, w0
   8533c:	54000241 	b.ne	85384 <CEcoIPCCMailbox1_QueryInterface+0x504>  // b.any
   85340:	f94013a0 	ldr	x0, [x29, #32]
   85344:	91004400 	add	x0, x0, #0x11
   85348:	39400001 	ldrb	w1, [x0]
   8534c:	b0000000 	adrp	x0, 86000 <g_xCEcoFactoryList1_42757331+0x100>
   85350:	9117e400 	add	x0, x0, #0x5f9
   85354:	39400000 	ldrb	w0, [x0]
   85358:	6b00003f 	cmp	w1, w0
   8535c:	54000141 	b.ne	85384 <CEcoIPCCMailbox1_QueryInterface+0x504>  // b.any
   85360:	f9401fa1 	ldr	x1, [x29, #56]
   85364:	f9400fa0 	ldr	x0, [x29, #24]
   85368:	f9000001 	str	x1, [x0]
   8536c:	f9401fa0 	ldr	x0, [x29, #56]
   85370:	f9400000 	ldr	x0, [x0]
   85374:	f9400401 	ldr	x1, [x0, #8]
   85378:	f9401fa0 	ldr	x0, [x29, #56]
   8537c:	d63f0020 	blr	x1
   85380:	14000005 	b	85394 <CEcoIPCCMailbox1_QueryInterface+0x514>
   85384:	f9400fa0 	ldr	x0, [x29, #24]
   85388:	f900001f 	str	xzr, [x0]
   8538c:	12800000 	mov	w0, #0xffffffff            	// #-1
   85390:	14000002 	b	85398 <CEcoIPCCMailbox1_QueryInterface+0x518>
   85394:	52800000 	mov	w0, #0x0                   	// #0
   85398:	a8c47bfd 	ldp	x29, x30, [sp], #64
   8539c:	d65f03c0 	ret

00000000000853a0 <CEcoIPCCMailbox1_AddRef>:
   853a0:	d10083ff 	sub	sp, sp, #0x20
   853a4:	f90007e0 	str	x0, [sp, #8]
   853a8:	f94007e0 	ldr	x0, [sp, #8]
   853ac:	f9000fe0 	str	x0, [sp, #24]
   853b0:	f94007e0 	ldr	x0, [sp, #8]
   853b4:	f100001f 	cmp	x0, #0x0
   853b8:	54000061 	b.ne	853c4 <CEcoIPCCMailbox1_AddRef+0x24>  // b.any
   853bc:	12800000 	mov	w0, #0xffffffff            	// #-1
   853c0:	14000008 	b	853e0 <CEcoIPCCMailbox1_AddRef+0x40>
   853c4:	f9400fe0 	ldr	x0, [sp, #24]
   853c8:	b9400800 	ldr	w0, [x0, #8]
   853cc:	11000401 	add	w1, w0, #0x1
   853d0:	f9400fe0 	ldr	x0, [sp, #24]
   853d4:	b9000801 	str	w1, [x0, #8]
   853d8:	f9400fe0 	ldr	x0, [sp, #24]
   853dc:	b9400800 	ldr	w0, [x0, #8]
   853e0:	910083ff 	add	sp, sp, #0x20
   853e4:	d65f03c0 	ret

00000000000853e8 <CEcoIPCCMailbox1_Release>:
   853e8:	a9bd7bfd 	stp	x29, x30, [sp, #-48]!
   853ec:	910003fd 	mov	x29, sp
   853f0:	f9000fa0 	str	x0, [x29, #24]
   853f4:	f9400fa0 	ldr	x0, [x29, #24]
   853f8:	f90017a0 	str	x0, [x29, #40]
   853fc:	f9400fa0 	ldr	x0, [x29, #24]
   85400:	f100001f 	cmp	x0, #0x0
   85404:	54000061 	b.ne	85410 <CEcoIPCCMailbox1_Release+0x28>  // b.any
   85408:	12800000 	mov	w0, #0xffffffff            	// #-1
   8540c:	14000010 	b	8544c <CEcoIPCCMailbox1_Release+0x64>
   85410:	f94017a0 	ldr	x0, [x29, #40]
   85414:	b9400800 	ldr	w0, [x0, #8]
   85418:	51000401 	sub	w1, w0, #0x1
   8541c:	f94017a0 	ldr	x0, [x29, #40]
   85420:	b9000801 	str	w1, [x0, #8]
   85424:	f94017a0 	ldr	x0, [x29, #40]
   85428:	b9400800 	ldr	w0, [x0, #8]
   8542c:	7100001f 	cmp	w0, #0x0
   85430:	540000a1 	b.ne	85444 <CEcoIPCCMailbox1_Release+0x5c>  // b.any
   85434:	f94017a0 	ldr	x0, [x29, #40]
   85438:	9400012f 	bl	858f4 <deleteCEcoIPCCMailbox1>
   8543c:	52800000 	mov	w0, #0x0                   	// #0
   85440:	14000003 	b	8544c <CEcoIPCCMailbox1_Release+0x64>
   85444:	f94017a0 	ldr	x0, [x29, #40]
   85448:	b9400800 	ldr	w0, [x0, #8]
   8544c:	a8c37bfd 	ldp	x29, x30, [sp], #48
   85450:	d65f03c0 	ret

0000000000085454 <CEcoIPCCMailbox1_get_MappedAddress>:
   85454:	d10083ff 	sub	sp, sp, #0x20
   85458:	f90007e0 	str	x0, [sp, #8]
   8545c:	f94007e0 	ldr	x0, [sp, #8]
   85460:	f9000fe0 	str	x0, [sp, #24]
   85464:	b90017ff 	str	wzr, [sp, #20]
   85468:	f94007e0 	ldr	x0, [sp, #8]
   8546c:	f100001f 	cmp	x0, #0x0
   85470:	54000080 	b.eq	85480 <CEcoIPCCMailbox1_get_MappedAddress+0x2c>  // b.none
   85474:	f9400fe0 	ldr	x0, [sp, #24]
   85478:	f9401000 	ldr	x0, [x0, #32]
   8547c:	14000003 	b	85488 <CEcoIPCCMailbox1_get_MappedAddress+0x34>
   85480:	d503201f 	nop
   85484:	d503201f 	nop
   85488:	910083ff 	add	sp, sp, #0x20
   8548c:	d65f03c0 	ret

0000000000085490 <CEcoIPCCMailbox1_set_MappedAddress>:
   85490:	d10083ff 	sub	sp, sp, #0x20
   85494:	f90007e0 	str	x0, [sp, #8]
   85498:	f90003e1 	str	x1, [sp]
   8549c:	f94007e0 	ldr	x0, [sp, #8]
   854a0:	f9000fe0 	str	x0, [sp, #24]
   854a4:	f94007e0 	ldr	x0, [sp, #8]
   854a8:	f100001f 	cmp	x0, #0x0
   854ac:	540000a0 	b.eq	854c0 <CEcoIPCCMailbox1_set_MappedAddress+0x30>  // b.none
   854b0:	f9400fe0 	ldr	x0, [sp, #24]
   854b4:	f94003e1 	ldr	x1, [sp]
   854b8:	f9001001 	str	x1, [x0, #32]
   854bc:	14000002 	b	854c4 <CEcoIPCCMailbox1_set_MappedAddress+0x34>
   854c0:	d503201f 	nop
   854c4:	910083ff 	add	sp, sp, #0x20
   854c8:	d65f03c0 	ret

00000000000854cc <CEcoIPCCMailbox1_Read>:
   854cc:	d10083ff 	sub	sp, sp, #0x20
   854d0:	f90007e0 	str	x0, [sp, #8]
   854d4:	39001fe1 	strb	w1, [sp, #7]
   854d8:	f9000fff 	str	xzr, [sp, #24]
   854dc:	b90017ff 	str	wzr, [sp, #20]
   854e0:	f94007e0 	ldr	x0, [sp, #8]
   854e4:	f100001f 	cmp	x0, #0x0
   854e8:	54000320 	b.eq	8554c <CEcoIPCCMailbox1_Read+0x80>  // b.none
   854ec:	f94007e0 	ldr	x0, [sp, #8]
   854f0:	f9000fe0 	str	x0, [sp, #24]
   854f4:	f9400fe0 	ldr	x0, [sp, #24]
   854f8:	f9401000 	ldr	x0, [x0, #32]
   854fc:	b9401800 	ldr	w0, [x0, #24]
   85500:	b90017e0 	str	w0, [sp, #20]
   85504:	b94017e0 	ldr	w0, [sp, #20]
   85508:	12020000 	and	w0, w0, #0x40000000
   8550c:	7100001f 	cmp	w0, #0x0
   85510:	54ffff21 	b.ne	854f4 <CEcoIPCCMailbox1_Read+0x28>  // b.any
   85514:	f9400fe0 	ldr	x0, [sp, #24]
   85518:	f9401000 	ldr	x0, [x0, #32]
   8551c:	b9400000 	ldr	w0, [x0]
   85520:	b90017e0 	str	w0, [sp, #20]
   85524:	b94017e0 	ldr	w0, [sp, #20]
   85528:	12000c01 	and	w1, w0, #0xf
   8552c:	39401fe0 	ldrb	w0, [sp, #7]
   85530:	6b00003f 	cmp	w1, w0
   85534:	54fffe01 	b.ne	854f4 <CEcoIPCCMailbox1_Read+0x28>  // b.any
   85538:	b94017e0 	ldr	w0, [sp, #20]
   8553c:	121c6c00 	and	w0, w0, #0xfffffff0
   85540:	b90017e0 	str	w0, [sp, #20]
   85544:	b94017e0 	ldr	w0, [sp, #20]
   85548:	14000003 	b	85554 <CEcoIPCCMailbox1_Read+0x88>
   8554c:	d503201f 	nop
   85550:	d503201f 	nop
   85554:	910083ff 	add	sp, sp, #0x20
   85558:	d65f03c0 	ret

000000000008555c <CEcoIPCCMailbox1_Write>:
   8555c:	d10083ff 	sub	sp, sp, #0x20
   85560:	f90007e0 	str	x0, [sp, #8]
   85564:	39001fe1 	strb	w1, [sp, #7]
   85568:	b90003e2 	str	w2, [sp]
   8556c:	f94007e0 	ldr	x0, [sp, #8]
   85570:	f9000fe0 	str	x0, [sp, #24]
   85574:	b90017ff 	str	wzr, [sp, #20]
   85578:	f94007e0 	ldr	x0, [sp, #8]
   8557c:	f100001f 	cmp	x0, #0x0
   85580:	540002c0 	b.eq	855d8 <CEcoIPCCMailbox1_Write+0x7c>  // b.none
   85584:	b94003e0 	ldr	w0, [sp]
   85588:	121c6c00 	and	w0, w0, #0xfffffff0
   8558c:	b90003e0 	str	w0, [sp]
   85590:	39401fe0 	ldrb	w0, [sp, #7]
   85594:	b94003e1 	ldr	w1, [sp]
   85598:	2a000020 	orr	w0, w1, w0
   8559c:	b90003e0 	str	w0, [sp]
   855a0:	f9400fe0 	ldr	x0, [sp, #24]
   855a4:	f9401000 	ldr	x0, [x0, #32]
   855a8:	b9403800 	ldr	w0, [x0, #56]
   855ac:	b90017e0 	str	w0, [sp, #20]
   855b0:	b94017e0 	ldr	w0, [sp, #20]
   855b4:	7100001f 	cmp	w0, #0x0
   855b8:	54ffff4b 	b.lt	855a0 <CEcoIPCCMailbox1_Write+0x44>  // b.tstop
   855bc:	f9400fe0 	ldr	x0, [sp, #24]
   855c0:	f9401000 	ldr	x0, [x0, #32]
   855c4:	aa0003e1 	mov	x1, x0
   855c8:	b94003e0 	ldr	w0, [sp]
   855cc:	b9002020 	str	w0, [x1, #32]
   855d0:	d503201f 	nop
   855d4:	14000002 	b	855dc <CEcoIPCCMailbox1_Write+0x80>
   855d8:	d503201f 	nop
   855dc:	910083ff 	add	sp, sp, #0x20
   855e0:	d65f03c0 	ret

00000000000855e4 <CEcoIPCCMailbox1_ProcessingByArgs>:
   855e4:	a9a87bfd 	stp	x29, x30, [sp, #-384]!
   855e8:	910003fd 	mov	x29, sp
   855ec:	f90017a0 	str	x0, [x29, #40]
   855f0:	39009fa1 	strb	w1, [x29, #39]
   855f4:	f9000fa2 	str	x2, [x29, #24]
   855f8:	b90023a3 	str	w3, [x29, #32]
   855fc:	f900b3a4 	str	x4, [x29, #352]
   85600:	f900b7a5 	str	x5, [x29, #360]
   85604:	f900bba6 	str	x6, [x29, #368]
   85608:	f900bfa7 	str	x7, [x29, #376]
   8560c:	3d803ba0 	str	q0, [x29, #224]
   85610:	3d803fa1 	str	q1, [x29, #240]
   85614:	3d8043a2 	str	q2, [x29, #256]
   85618:	3d8047a3 	str	q3, [x29, #272]
   8561c:	3d804ba4 	str	q4, [x29, #288]
   85620:	3d804fa5 	str	q5, [x29, #304]
   85624:	3d8053a6 	str	q6, [x29, #320]
   85628:	3d8057a7 	str	q7, [x29, #336]
   8562c:	f94017a0 	ldr	x0, [x29, #40]
   85630:	f9006ba0 	str	x0, [x29, #208]
   85634:	12800000 	mov	w0, #0xffffffff            	// #-1
   85638:	b900dfa0 	str	w0, [x29, #220]
   8563c:	b900dbbf 	str	wzr, [x29, #216]
   85640:	a9057fbf 	stp	xzr, xzr, [x29, #80]
   85644:	a9067fbf 	stp	xzr, xzr, [x29, #96]
   85648:	a9077fbf 	stp	xzr, xzr, [x29, #112]
   8564c:	a9087fbf 	stp	xzr, xzr, [x29, #128]
   85650:	a9097fbf 	stp	xzr, xzr, [x29, #144]
   85654:	a90a7fbf 	stp	xzr, xzr, [x29, #160]
   85658:	a90b7fbf 	stp	xzr, xzr, [x29, #176]
   8565c:	a90c7fbf 	stp	xzr, xzr, [x29, #192]
   85660:	f94017a0 	ldr	x0, [x29, #40]
   85664:	f100001f 	cmp	x0, #0x0
   85668:	54000081 	b.ne	85678 <CEcoIPCCMailbox1_ProcessingByArgs+0x94>  // b.any
   8566c:	b940dfa0 	ldr	w0, [x29, #220]
   85670:	13003c00 	sxth	w0, w0
   85674:	1400006a 	b	8581c <CEcoIPCCMailbox1_ProcessingByArgs+0x238>
   85678:	910603a0 	add	x0, x29, #0x180
   8567c:	f9001ba0 	str	x0, [x29, #48]
   85680:	910603a0 	add	x0, x29, #0x180
   85684:	f9001fa0 	str	x0, [x29, #56]
   85688:	910583a0 	add	x0, x29, #0x160
   8568c:	f90023a0 	str	x0, [x29, #64]
   85690:	128003e0 	mov	w0, #0xffffffe0            	// #-32
   85694:	b9004ba0 	str	w0, [x29, #72]
   85698:	12800fe0 	mov	w0, #0xffffff80            	// #-128
   8569c:	b9004fa0 	str	w0, [x29, #76]
   856a0:	b94023a0 	ldr	w0, [x29, #32]
   856a4:	11000c00 	add	w0, w0, #0x3
   856a8:	531e7400 	lsl	w0, w0, #2
   856ac:	b90053a0 	str	w0, [x29, #80]
   856b0:	b94023a0 	ldr	w0, [x29, #32]
   856b4:	11000800 	add	w0, w0, #0x2
   856b8:	2a0003e0 	mov	w0, w0
   856bc:	d37ef400 	lsl	x0, x0, #2
   856c0:	910143a1 	add	x1, x29, #0x50
   856c4:	b820683f 	str	wzr, [x1, x0]
   856c8:	b90057bf 	str	wzr, [x29, #84]
   856cc:	b900dbbf 	str	wzr, [x29, #216]
   856d0:	14000023 	b	8575c <CEcoIPCCMailbox1_ProcessingByArgs+0x178>
   856d4:	b940dba0 	ldr	w0, [x29, #216]
   856d8:	11000803 	add	w3, w0, #0x2
   856dc:	b9404ba0 	ldr	w0, [x29, #72]
   856e0:	f9401ba1 	ldr	x1, [x29, #48]
   856e4:	7100001f 	cmp	w0, #0x0
   856e8:	540000eb 	b.lt	85704 <CEcoIPCCMailbox1_ProcessingByArgs+0x120>  // b.tstop
   856ec:	aa0103e0 	mov	x0, x1
   856f0:	91002c00 	add	x0, x0, #0xb
   856f4:	927df000 	and	x0, x0, #0xfffffffffffffff8
   856f8:	f9001ba0 	str	x0, [x29, #48]
   856fc:	aa0103e0 	mov	x0, x1
   85700:	1400000f 	b	8573c <CEcoIPCCMailbox1_ProcessingByArgs+0x158>
   85704:	11002002 	add	w2, w0, #0x8
   85708:	b9004ba2 	str	w2, [x29, #72]
   8570c:	b9404ba2 	ldr	w2, [x29, #72]
   85710:	7100005f 	cmp	w2, #0x0
   85714:	540000ed 	b.le	85730 <CEcoIPCCMailbox1_ProcessingByArgs+0x14c>
   85718:	aa0103e0 	mov	x0, x1
   8571c:	91002c00 	add	x0, x0, #0xb
   85720:	927df000 	and	x0, x0, #0xfffffffffffffff8
   85724:	f9001ba0 	str	x0, [x29, #48]
   85728:	aa0103e0 	mov	x0, x1
   8572c:	14000004 	b	8573c <CEcoIPCCMailbox1_ProcessingByArgs+0x158>
   85730:	f9401fa1 	ldr	x1, [x29, #56]
   85734:	93407c00 	sxtw	x0, w0
   85738:	8b000020 	add	x0, x1, x0
   8573c:	b9400002 	ldr	w2, [x0]
   85740:	93407c60 	sxtw	x0, w3
   85744:	d37ef400 	lsl	x0, x0, #2
   85748:	910143a1 	add	x1, x29, #0x50
   8574c:	b8206822 	str	w2, [x1, x0]
   85750:	b940dba0 	ldr	w0, [x29, #216]
   85754:	11000400 	add	w0, w0, #0x1
   85758:	b900dba0 	str	w0, [x29, #216]
   8575c:	b940dba0 	ldr	w0, [x29, #216]
   85760:	b94023a1 	ldr	w1, [x29, #32]
   85764:	6b00003f 	cmp	w1, w0
   85768:	54fffb68 	b.hi	856d4 <CEcoIPCCMailbox1_ProcessingByArgs+0xf0>  // b.pmore
   8576c:	f94017a0 	ldr	x0, [x29, #40]
   85770:	f9400000 	ldr	x0, [x0]
   85774:	f9401803 	ldr	x3, [x0, #48]
   85778:	910143a0 	add	x0, x29, #0x50
   8577c:	2a0003e2 	mov	w2, w0
   85780:	39409fa1 	ldrb	w1, [x29, #39]
   85784:	f94017a0 	ldr	x0, [x29, #40]
   85788:	d63f0060 	blr	x3
   8578c:	f94017a0 	ldr	x0, [x29, #40]
   85790:	f9400000 	ldr	x0, [x0]
   85794:	f9401402 	ldr	x2, [x0, #40]
   85798:	39409fa1 	ldrb	w1, [x29, #39]
   8579c:	f94017a0 	ldr	x0, [x29, #40]
   857a0:	d63f0040 	blr	x2
   857a4:	b94057a1 	ldr	w1, [x29, #84]
   857a8:	52b00000 	mov	w0, #0x80000000            	// #-2147483648
   857ac:	6b00003f 	cmp	w1, w0
   857b0:	54000321 	b.ne	85814 <CEcoIPCCMailbox1_ProcessingByArgs+0x230>  // b.any
   857b4:	f9400fa0 	ldr	x0, [x29, #24]
   857b8:	f100001f 	cmp	x0, #0x0
   857bc:	540002a0 	b.eq	85810 <CEcoIPCCMailbox1_ProcessingByArgs+0x22c>  // b.none
   857c0:	b900dbbf 	str	wzr, [x29, #216]
   857c4:	1400000f 	b	85800 <CEcoIPCCMailbox1_ProcessingByArgs+0x21c>
   857c8:	b940dba0 	ldr	w0, [x29, #216]
   857cc:	11000802 	add	w2, w0, #0x2
   857d0:	b980dba0 	ldrsw	x0, [x29, #216]
   857d4:	d37ef400 	lsl	x0, x0, #2
   857d8:	f9400fa1 	ldr	x1, [x29, #24]
   857dc:	8b000020 	add	x0, x1, x0
   857e0:	93407c41 	sxtw	x1, w2
   857e4:	d37ef421 	lsl	x1, x1, #2
   857e8:	910143a2 	add	x2, x29, #0x50
   857ec:	b8616841 	ldr	w1, [x2, x1]
   857f0:	b9000001 	str	w1, [x0]
   857f4:	b940dba0 	ldr	w0, [x29, #216]
   857f8:	11000400 	add	w0, w0, #0x1
   857fc:	b900dba0 	str	w0, [x29, #216]
   85800:	b940dba0 	ldr	w0, [x29, #216]
   85804:	b94023a1 	ldr	w1, [x29, #32]
   85808:	6b00003f 	cmp	w1, w0
   8580c:	54fffde8 	b.hi	857c8 <CEcoIPCCMailbox1_ProcessingByArgs+0x1e4>  // b.pmore
   85810:	b900dfbf 	str	wzr, [x29, #220]
   85814:	b940dfa0 	ldr	w0, [x29, #220]
   85818:	13003c00 	sxth	w0, w0
   8581c:	a8d87bfd 	ldp	x29, x30, [sp], #384
   85820:	d65f03c0 	ret

0000000000085824 <initCEcoIPCCMailbox1>:
   85824:	d10083ff 	sub	sp, sp, #0x20
   85828:	f90007e0 	str	x0, [sp, #8]
   8582c:	f90003e1 	str	x1, [sp]
   85830:	f94007e0 	ldr	x0, [sp, #8]
   85834:	f9000fe0 	str	x0, [sp, #24]
   85838:	12800000 	mov	w0, #0xffffffff            	// #-1
   8583c:	79002fe0 	strh	w0, [sp, #22]
   85840:	f94007e0 	ldr	x0, [sp, #8]
   85844:	f100001f 	cmp	x0, #0x0
   85848:	54000061 	b.ne	85854 <initCEcoIPCCMailbox1+0x30>  // b.any
   8584c:	79c02fe0 	ldrsh	w0, [sp, #22]
   85850:	14000009 	b	85874 <initCEcoIPCCMailbox1+0x50>
   85854:	f9400fe0 	ldr	x0, [sp, #24]
   85858:	f94003e1 	ldr	x1, [sp]
   8585c:	f9000c01 	str	x1, [x0, #24]
   85860:	f9400fe0 	ldr	x0, [sp, #24]
   85864:	d2971001 	mov	x1, #0xb880                	// #47232
   85868:	f2a7e001 	movk	x1, #0x3f00, lsl #16
   8586c:	f9001001 	str	x1, [x0, #32]
   85870:	52800000 	mov	w0, #0x0                   	// #0
   85874:	910083ff 	add	sp, sp, #0x20
   85878:	d65f03c0 	ret

000000000008587c <createCEcoIPCCMailbox1>:
   8587c:	d10143ff 	sub	sp, sp, #0x50
   85880:	f9000fe0 	str	x0, [sp, #24]
   85884:	f9000be1 	str	x1, [sp, #16]
   85888:	f90007e2 	str	x2, [sp, #8]
   8588c:	12800000 	mov	w0, #0xffffffff            	// #-1
   85890:	79009fe0 	strh	w0, [sp, #78]
   85894:	f90023ff 	str	xzr, [sp, #64]
   85898:	f9001fff 	str	xzr, [sp, #56]
   8589c:	f9001bff 	str	xzr, [sp, #48]
   858a0:	f90017ff 	str	xzr, [sp, #40]
   858a4:	90000000 	adrp	x0, 85000 <CEcoIPCCMailbox1_QueryInterface+0x180>
   858a8:	91376000 	add	x0, x0, #0xdd8
   858ac:	f90017e0 	str	x0, [sp, #40]
   858b0:	f94017e0 	ldr	x0, [sp, #40]
   858b4:	b9400800 	ldr	w0, [x0, #8]
   858b8:	7100001f 	cmp	w0, #0x0
   858bc:	54000101 	b.ne	858dc <createCEcoIPCCMailbox1+0x60>  // b.any
   858c0:	f94017e0 	ldr	x0, [sp, #40]
   858c4:	52800021 	mov	w1, #0x1                   	// #1
   858c8:	b9000801 	str	w1, [x0, #8]
   858cc:	f94017e0 	ldr	x0, [sp, #40]
   858d0:	d2971001 	mov	x1, #0xb880                	// #47232
   858d4:	f2a7e001 	movk	x1, #0x3f00, lsl #16
   858d8:	f9001001 	str	x1, [x0, #32]
   858dc:	f94007e0 	ldr	x0, [sp, #8]
   858e0:	f94017e1 	ldr	x1, [sp, #40]
   858e4:	f9000001 	str	x1, [x0]
   858e8:	52800000 	mov	w0, #0x0                   	// #0
   858ec:	910143ff 	add	sp, sp, #0x50
   858f0:	d65f03c0 	ret

00000000000858f4 <deleteCEcoIPCCMailbox1>:
   858f4:	d10083ff 	sub	sp, sp, #0x20
   858f8:	f90007e0 	str	x0, [sp, #8]
   858fc:	f94007e0 	ldr	x0, [sp, #8]
   85900:	f9000fe0 	str	x0, [sp, #24]
   85904:	f9000bff 	str	xzr, [sp, #16]
   85908:	d503201f 	nop
   8590c:	910083ff 	add	sp, sp, #0x20
   85910:	d65f03c0 	ret
